ARM GAS  /tmp/ccQYaWvF.s 			page 1


   1              		.cpu cortex-m4
   2              		.arch armv7e-m
   3              		.fpu fpv4-sp-d16
   4              		.eabi_attribute 27, 1
   5              		.eabi_attribute 28, 1
   6              		.eabi_attribute 20, 1
   7              		.eabi_attribute 21, 1
   8              		.eabi_attribute 23, 3
   9              		.eabi_attribute 24, 1
  10              		.eabi_attribute 25, 1
  11              		.eabi_attribute 26, 1
  12              		.eabi_attribute 30, 1
  13              		.eabi_attribute 34, 1
  14              		.eabi_attribute 18, 4
  15              		.file	"stm32f4xx_hal_i2s_ex.c"
  16              		.text
  17              	.Ltext0:
  18              		.cfi_sections	.debug_frame
  19              		.file 1 "Drivers/STM32F4xx_HAL_Driver/Src/stm32f4xx_hal_i2s_ex.c"
  20              		.section	.text.I2SEx_FullDuplexWaitFlagStateUntilTimeout,"ax",%progbits
  21              		.align	1
  22              		.syntax unified
  23              		.thumb
  24              		.thumb_func
  26              	I2SEx_FullDuplexWaitFlagStateUntilTimeout:
  27              	.LVL0:
  28              	.LFB147:
   1:Drivers/STM32F4xx_HAL_Driver/Src/stm32f4xx_hal_i2s_ex.c **** /**
   2:Drivers/STM32F4xx_HAL_Driver/Src/stm32f4xx_hal_i2s_ex.c ****   ******************************************************************************
   3:Drivers/STM32F4xx_HAL_Driver/Src/stm32f4xx_hal_i2s_ex.c ****   * @file    stm32f4xx_hal_i2s_ex.c
   4:Drivers/STM32F4xx_HAL_Driver/Src/stm32f4xx_hal_i2s_ex.c ****   * @author  MCD Application Team
   5:Drivers/STM32F4xx_HAL_Driver/Src/stm32f4xx_hal_i2s_ex.c ****   * @brief   I2S HAL module driver.
   6:Drivers/STM32F4xx_HAL_Driver/Src/stm32f4xx_hal_i2s_ex.c ****   *          This file provides firmware functions to manage the following
   7:Drivers/STM32F4xx_HAL_Driver/Src/stm32f4xx_hal_i2s_ex.c ****   *          functionalities of I2S extension peripheral:
   8:Drivers/STM32F4xx_HAL_Driver/Src/stm32f4xx_hal_i2s_ex.c ****   *           + Extension features Functions
   9:Drivers/STM32F4xx_HAL_Driver/Src/stm32f4xx_hal_i2s_ex.c ****   ******************************************************************************
  10:Drivers/STM32F4xx_HAL_Driver/Src/stm32f4xx_hal_i2s_ex.c ****   * @attention
  11:Drivers/STM32F4xx_HAL_Driver/Src/stm32f4xx_hal_i2s_ex.c ****   *
  12:Drivers/STM32F4xx_HAL_Driver/Src/stm32f4xx_hal_i2s_ex.c ****   * Copyright (c) 2016 STMicroelectronics.
  13:Drivers/STM32F4xx_HAL_Driver/Src/stm32f4xx_hal_i2s_ex.c ****   * All rights reserved.
  14:Drivers/STM32F4xx_HAL_Driver/Src/stm32f4xx_hal_i2s_ex.c ****   *
  15:Drivers/STM32F4xx_HAL_Driver/Src/stm32f4xx_hal_i2s_ex.c ****   * This software is licensed under terms that can be found in the LICENSE file
  16:Drivers/STM32F4xx_HAL_Driver/Src/stm32f4xx_hal_i2s_ex.c ****   * in the root directory of this software component.
  17:Drivers/STM32F4xx_HAL_Driver/Src/stm32f4xx_hal_i2s_ex.c ****   * If no LICENSE file comes with this software, it is provided AS-IS.
  18:Drivers/STM32F4xx_HAL_Driver/Src/stm32f4xx_hal_i2s_ex.c ****   *
  19:Drivers/STM32F4xx_HAL_Driver/Src/stm32f4xx_hal_i2s_ex.c ****   ******************************************************************************
  20:Drivers/STM32F4xx_HAL_Driver/Src/stm32f4xx_hal_i2s_ex.c ****   @verbatim
  21:Drivers/STM32F4xx_HAL_Driver/Src/stm32f4xx_hal_i2s_ex.c ****   ==============================================================================
  22:Drivers/STM32F4xx_HAL_Driver/Src/stm32f4xx_hal_i2s_ex.c ****                     ##### I2S Extension features #####
  23:Drivers/STM32F4xx_HAL_Driver/Src/stm32f4xx_hal_i2s_ex.c ****   ==============================================================================
  24:Drivers/STM32F4xx_HAL_Driver/Src/stm32f4xx_hal_i2s_ex.c ****   [..]
  25:Drivers/STM32F4xx_HAL_Driver/Src/stm32f4xx_hal_i2s_ex.c ****      (#) In I2S full duplex mode, each SPI peripheral is able to manage sending and receiving
  26:Drivers/STM32F4xx_HAL_Driver/Src/stm32f4xx_hal_i2s_ex.c ****          data simultaneously using two data lines. Each SPI peripheral has an extended block
  27:Drivers/STM32F4xx_HAL_Driver/Src/stm32f4xx_hal_i2s_ex.c ****          called I2Sxext (i.e I2S2ext for SPI2 and I2S3ext for SPI3).
  28:Drivers/STM32F4xx_HAL_Driver/Src/stm32f4xx_hal_i2s_ex.c ****      (#) The extension block is not a full SPI IP, it is used only as I2S slave to
  29:Drivers/STM32F4xx_HAL_Driver/Src/stm32f4xx_hal_i2s_ex.c ****          implement full duplex mode. The extension block uses the same clock sources
  30:Drivers/STM32F4xx_HAL_Driver/Src/stm32f4xx_hal_i2s_ex.c ****          as its master.
ARM GAS  /tmp/ccQYaWvF.s 			page 2


  31:Drivers/STM32F4xx_HAL_Driver/Src/stm32f4xx_hal_i2s_ex.c **** 
  32:Drivers/STM32F4xx_HAL_Driver/Src/stm32f4xx_hal_i2s_ex.c ****      (#) Both I2Sx and I2Sx_ext can be configured as transmitters or receivers.
  33:Drivers/STM32F4xx_HAL_Driver/Src/stm32f4xx_hal_i2s_ex.c **** 
  34:Drivers/STM32F4xx_HAL_Driver/Src/stm32f4xx_hal_i2s_ex.c ****      [..]
  35:Drivers/STM32F4xx_HAL_Driver/Src/stm32f4xx_hal_i2s_ex.c ****        (@) Only I2Sx can deliver SCK and WS to I2Sx_ext in full duplex mode, where
  36:Drivers/STM32F4xx_HAL_Driver/Src/stm32f4xx_hal_i2s_ex.c ****          I2Sx can be I2S2 or I2S3.
  37:Drivers/STM32F4xx_HAL_Driver/Src/stm32f4xx_hal_i2s_ex.c **** 
  38:Drivers/STM32F4xx_HAL_Driver/Src/stm32f4xx_hal_i2s_ex.c ****                   ##### How to use this driver #####
  39:Drivers/STM32F4xx_HAL_Driver/Src/stm32f4xx_hal_i2s_ex.c ****  ===============================================================================
  40:Drivers/STM32F4xx_HAL_Driver/Src/stm32f4xx_hal_i2s_ex.c ****  [..]
  41:Drivers/STM32F4xx_HAL_Driver/Src/stm32f4xx_hal_i2s_ex.c ****    Three operation modes are available within this driver :
  42:Drivers/STM32F4xx_HAL_Driver/Src/stm32f4xx_hal_i2s_ex.c **** 
  43:Drivers/STM32F4xx_HAL_Driver/Src/stm32f4xx_hal_i2s_ex.c ****    *** Polling mode IO operation ***
  44:Drivers/STM32F4xx_HAL_Driver/Src/stm32f4xx_hal_i2s_ex.c ****    =================================
  45:Drivers/STM32F4xx_HAL_Driver/Src/stm32f4xx_hal_i2s_ex.c ****    [..]
  46:Drivers/STM32F4xx_HAL_Driver/Src/stm32f4xx_hal_i2s_ex.c ****      (+) Send and receive in the same time an amount of data in blocking mode using HAL_I2SEx_Trans
  47:Drivers/STM32F4xx_HAL_Driver/Src/stm32f4xx_hal_i2s_ex.c **** 
  48:Drivers/STM32F4xx_HAL_Driver/Src/stm32f4xx_hal_i2s_ex.c ****    *** Interrupt mode IO operation ***
  49:Drivers/STM32F4xx_HAL_Driver/Src/stm32f4xx_hal_i2s_ex.c ****    ===================================
  50:Drivers/STM32F4xx_HAL_Driver/Src/stm32f4xx_hal_i2s_ex.c ****    [..]
  51:Drivers/STM32F4xx_HAL_Driver/Src/stm32f4xx_hal_i2s_ex.c ****      (+) Send and receive in the same time an amount of data in non blocking mode using HAL_I2SEx_T
  52:Drivers/STM32F4xx_HAL_Driver/Src/stm32f4xx_hal_i2s_ex.c ****      (+) At transmission/reception end of transfer HAL_I2SEx_TxRxCpltCallback is executed and user 
  53:Drivers/STM32F4xx_HAL_Driver/Src/stm32f4xx_hal_i2s_ex.c ****          add his own code by customization of function pointer HAL_I2SEx_TxRxCpltCallback
  54:Drivers/STM32F4xx_HAL_Driver/Src/stm32f4xx_hal_i2s_ex.c ****      (+) In case of transfer Error, HAL_I2S_ErrorCallback() function is executed and user can
  55:Drivers/STM32F4xx_HAL_Driver/Src/stm32f4xx_hal_i2s_ex.c ****          add his own code by customization of function pointer HAL_I2S_ErrorCallback
  56:Drivers/STM32F4xx_HAL_Driver/Src/stm32f4xx_hal_i2s_ex.c **** 
  57:Drivers/STM32F4xx_HAL_Driver/Src/stm32f4xx_hal_i2s_ex.c ****    *** DMA mode IO operation ***
  58:Drivers/STM32F4xx_HAL_Driver/Src/stm32f4xx_hal_i2s_ex.c ****    ==============================
  59:Drivers/STM32F4xx_HAL_Driver/Src/stm32f4xx_hal_i2s_ex.c ****    [..]
  60:Drivers/STM32F4xx_HAL_Driver/Src/stm32f4xx_hal_i2s_ex.c ****      (+) Send and receive an amount of data in non blocking mode (DMA) using HAL_I2SEx_TransmitRece
  61:Drivers/STM32F4xx_HAL_Driver/Src/stm32f4xx_hal_i2s_ex.c ****      (+) At transmission/reception end of transfer HAL_I2SEx_TxRxCpltCallback is executed and user 
  62:Drivers/STM32F4xx_HAL_Driver/Src/stm32f4xx_hal_i2s_ex.c ****          add his own code by customization of function pointer HAL_I2S_TxRxCpltCallback
  63:Drivers/STM32F4xx_HAL_Driver/Src/stm32f4xx_hal_i2s_ex.c ****      (+) In case of transfer Error, HAL_I2S_ErrorCallback() function is executed and user can
  64:Drivers/STM32F4xx_HAL_Driver/Src/stm32f4xx_hal_i2s_ex.c ****          add his own code by customization of function pointer HAL_I2S_ErrorCallback
  65:Drivers/STM32F4xx_HAL_Driver/Src/stm32f4xx_hal_i2s_ex.c ****      (+) __HAL_I2SEXT_FLUSH_RX_DR: In Full-Duplex Slave mode, if HAL_I2S_DMAStop is used to stop th
  66:Drivers/STM32F4xx_HAL_Driver/Src/stm32f4xx_hal_i2s_ex.c ****          communication, an error HAL_I2S_ERROR_BUSY_LINE_RX is raised as the master continue to tra
  67:Drivers/STM32F4xx_HAL_Driver/Src/stm32f4xx_hal_i2s_ex.c ****          In this case __HAL_I2SEXT_FLUSH_RX_DR macro must be used to flush the remaining data
  68:Drivers/STM32F4xx_HAL_Driver/Src/stm32f4xx_hal_i2s_ex.c ****          inside I2Sx and I2Sx_ext DR registers and avoid using DeInit/Init process for the next tra
  69:Drivers/STM32F4xx_HAL_Driver/Src/stm32f4xx_hal_i2s_ex.c ****   @endverbatim
  70:Drivers/STM32F4xx_HAL_Driver/Src/stm32f4xx_hal_i2s_ex.c **** 
  71:Drivers/STM32F4xx_HAL_Driver/Src/stm32f4xx_hal_i2s_ex.c ****  Additional Figure: The Extended block uses the same clock sources as its master.
  72:Drivers/STM32F4xx_HAL_Driver/Src/stm32f4xx_hal_i2s_ex.c **** 
  73:Drivers/STM32F4xx_HAL_Driver/Src/stm32f4xx_hal_i2s_ex.c ****                 +-----------------------+
  74:Drivers/STM32F4xx_HAL_Driver/Src/stm32f4xx_hal_i2s_ex.c ****     I2Sx_SCK    |                       |
  75:Drivers/STM32F4xx_HAL_Driver/Src/stm32f4xx_hal_i2s_ex.c ****  ----------+-->|          I2Sx         |------------------->I2Sx_SD(in/out)
  76:Drivers/STM32F4xx_HAL_Driver/Src/stm32f4xx_hal_i2s_ex.c ****          +--|-->|                       |
  77:Drivers/STM32F4xx_HAL_Driver/Src/stm32f4xx_hal_i2s_ex.c ****         |   |   +-----------------------+
  78:Drivers/STM32F4xx_HAL_Driver/Src/stm32f4xx_hal_i2s_ex.c ****         |   |
  79:Drivers/STM32F4xx_HAL_Driver/Src/stm32f4xx_hal_i2s_ex.c ****  I2S_WS |   |
  80:Drivers/STM32F4xx_HAL_Driver/Src/stm32f4xx_hal_i2s_ex.c ****  ------>|   |
  81:Drivers/STM32F4xx_HAL_Driver/Src/stm32f4xx_hal_i2s_ex.c ****         |   |   +-----------------------+
  82:Drivers/STM32F4xx_HAL_Driver/Src/stm32f4xx_hal_i2s_ex.c ****         |   +-->|                       |
  83:Drivers/STM32F4xx_HAL_Driver/Src/stm32f4xx_hal_i2s_ex.c ****         |       |       I2Sx_ext        |------------------->I2Sx_extSD(in/out)
  84:Drivers/STM32F4xx_HAL_Driver/Src/stm32f4xx_hal_i2s_ex.c ****          +----->|                       |
  85:Drivers/STM32F4xx_HAL_Driver/Src/stm32f4xx_hal_i2s_ex.c ****                 +-----------------------+
  86:Drivers/STM32F4xx_HAL_Driver/Src/stm32f4xx_hal_i2s_ex.c ****   */
  87:Drivers/STM32F4xx_HAL_Driver/Src/stm32f4xx_hal_i2s_ex.c **** 
ARM GAS  /tmp/ccQYaWvF.s 			page 3


  88:Drivers/STM32F4xx_HAL_Driver/Src/stm32f4xx_hal_i2s_ex.c **** /* Includes ------------------------------------------------------------------*/
  89:Drivers/STM32F4xx_HAL_Driver/Src/stm32f4xx_hal_i2s_ex.c **** #include "stm32f4xx_hal.h"
  90:Drivers/STM32F4xx_HAL_Driver/Src/stm32f4xx_hal_i2s_ex.c **** 
  91:Drivers/STM32F4xx_HAL_Driver/Src/stm32f4xx_hal_i2s_ex.c **** /** @addtogroup STM32F4xx_HAL_Driver
  92:Drivers/STM32F4xx_HAL_Driver/Src/stm32f4xx_hal_i2s_ex.c ****   * @{
  93:Drivers/STM32F4xx_HAL_Driver/Src/stm32f4xx_hal_i2s_ex.c ****   */
  94:Drivers/STM32F4xx_HAL_Driver/Src/stm32f4xx_hal_i2s_ex.c **** 
  95:Drivers/STM32F4xx_HAL_Driver/Src/stm32f4xx_hal_i2s_ex.c **** #ifdef HAL_I2S_MODULE_ENABLED
  96:Drivers/STM32F4xx_HAL_Driver/Src/stm32f4xx_hal_i2s_ex.c **** 
  97:Drivers/STM32F4xx_HAL_Driver/Src/stm32f4xx_hal_i2s_ex.c **** /** @defgroup I2SEx I2SEx
  98:Drivers/STM32F4xx_HAL_Driver/Src/stm32f4xx_hal_i2s_ex.c ****   * @brief I2S Extended HAL module driver
  99:Drivers/STM32F4xx_HAL_Driver/Src/stm32f4xx_hal_i2s_ex.c ****   * @{
 100:Drivers/STM32F4xx_HAL_Driver/Src/stm32f4xx_hal_i2s_ex.c ****   */
 101:Drivers/STM32F4xx_HAL_Driver/Src/stm32f4xx_hal_i2s_ex.c **** 
 102:Drivers/STM32F4xx_HAL_Driver/Src/stm32f4xx_hal_i2s_ex.c **** #if defined (SPI_I2S_FULLDUPLEX_SUPPORT)
 103:Drivers/STM32F4xx_HAL_Driver/Src/stm32f4xx_hal_i2s_ex.c **** 
 104:Drivers/STM32F4xx_HAL_Driver/Src/stm32f4xx_hal_i2s_ex.c **** /* Private typedef -----------------------------------------------------------*/
 105:Drivers/STM32F4xx_HAL_Driver/Src/stm32f4xx_hal_i2s_ex.c **** /** @defgroup I2SEx_Private_Typedef I2S Extended Private Typedef
 106:Drivers/STM32F4xx_HAL_Driver/Src/stm32f4xx_hal_i2s_ex.c ****   * @{
 107:Drivers/STM32F4xx_HAL_Driver/Src/stm32f4xx_hal_i2s_ex.c ****   */
 108:Drivers/STM32F4xx_HAL_Driver/Src/stm32f4xx_hal_i2s_ex.c **** typedef enum
 109:Drivers/STM32F4xx_HAL_Driver/Src/stm32f4xx_hal_i2s_ex.c **** {
 110:Drivers/STM32F4xx_HAL_Driver/Src/stm32f4xx_hal_i2s_ex.c ****   I2S_USE_I2S      = 0x00U,   /*!< I2Sx should be used      */
 111:Drivers/STM32F4xx_HAL_Driver/Src/stm32f4xx_hal_i2s_ex.c ****   I2S_USE_I2SEXT   = 0x01U,   /*!< I2Sx_ext should be used  */
 112:Drivers/STM32F4xx_HAL_Driver/Src/stm32f4xx_hal_i2s_ex.c **** } I2S_UseTypeDef;
 113:Drivers/STM32F4xx_HAL_Driver/Src/stm32f4xx_hal_i2s_ex.c **** /**
 114:Drivers/STM32F4xx_HAL_Driver/Src/stm32f4xx_hal_i2s_ex.c ****   * @}
 115:Drivers/STM32F4xx_HAL_Driver/Src/stm32f4xx_hal_i2s_ex.c ****   */
 116:Drivers/STM32F4xx_HAL_Driver/Src/stm32f4xx_hal_i2s_ex.c **** /* Private define ------------------------------------------------------------*/
 117:Drivers/STM32F4xx_HAL_Driver/Src/stm32f4xx_hal_i2s_ex.c **** /* Private macro -------------------------------------------------------------*/
 118:Drivers/STM32F4xx_HAL_Driver/Src/stm32f4xx_hal_i2s_ex.c **** /* Private variables ---------------------------------------------------------*/
 119:Drivers/STM32F4xx_HAL_Driver/Src/stm32f4xx_hal_i2s_ex.c **** /* Private function prototypes -----------------------------------------------*/
 120:Drivers/STM32F4xx_HAL_Driver/Src/stm32f4xx_hal_i2s_ex.c **** /** @defgroup I2SEx_Private_Functions I2S Extended Private Functions
 121:Drivers/STM32F4xx_HAL_Driver/Src/stm32f4xx_hal_i2s_ex.c ****   * @{
 122:Drivers/STM32F4xx_HAL_Driver/Src/stm32f4xx_hal_i2s_ex.c ****   */
 123:Drivers/STM32F4xx_HAL_Driver/Src/stm32f4xx_hal_i2s_ex.c **** static void I2SEx_TxRxDMAHalfCplt(DMA_HandleTypeDef *hdma);
 124:Drivers/STM32F4xx_HAL_Driver/Src/stm32f4xx_hal_i2s_ex.c **** static void I2SEx_TxRxDMACplt(DMA_HandleTypeDef *hdma);
 125:Drivers/STM32F4xx_HAL_Driver/Src/stm32f4xx_hal_i2s_ex.c **** static void I2SEx_TxRxDMAError(DMA_HandleTypeDef *hdma);
 126:Drivers/STM32F4xx_HAL_Driver/Src/stm32f4xx_hal_i2s_ex.c **** static void I2SEx_RxISR_I2S(I2S_HandleTypeDef *hi2s);
 127:Drivers/STM32F4xx_HAL_Driver/Src/stm32f4xx_hal_i2s_ex.c **** static void I2SEx_RxISR_I2SExt(I2S_HandleTypeDef *hi2s);
 128:Drivers/STM32F4xx_HAL_Driver/Src/stm32f4xx_hal_i2s_ex.c **** static void I2SEx_TxISR_I2S(I2S_HandleTypeDef *hi2s);
 129:Drivers/STM32F4xx_HAL_Driver/Src/stm32f4xx_hal_i2s_ex.c **** static void I2SEx_TxISR_I2SExt(I2S_HandleTypeDef *hi2s);
 130:Drivers/STM32F4xx_HAL_Driver/Src/stm32f4xx_hal_i2s_ex.c **** static HAL_StatusTypeDef I2SEx_FullDuplexWaitFlagStateUntilTimeout(I2S_HandleTypeDef *hi2s,
 131:Drivers/STM32F4xx_HAL_Driver/Src/stm32f4xx_hal_i2s_ex.c ****                                                                    uint32_t Flag,
 132:Drivers/STM32F4xx_HAL_Driver/Src/stm32f4xx_hal_i2s_ex.c ****                                                                    uint32_t State,
 133:Drivers/STM32F4xx_HAL_Driver/Src/stm32f4xx_hal_i2s_ex.c ****                                                                    uint32_t Timeout,
 134:Drivers/STM32F4xx_HAL_Driver/Src/stm32f4xx_hal_i2s_ex.c ****                                                                    I2S_UseTypeDef i2sUsed);
 135:Drivers/STM32F4xx_HAL_Driver/Src/stm32f4xx_hal_i2s_ex.c **** /**
 136:Drivers/STM32F4xx_HAL_Driver/Src/stm32f4xx_hal_i2s_ex.c ****   * @}
 137:Drivers/STM32F4xx_HAL_Driver/Src/stm32f4xx_hal_i2s_ex.c ****   */
 138:Drivers/STM32F4xx_HAL_Driver/Src/stm32f4xx_hal_i2s_ex.c **** 
 139:Drivers/STM32F4xx_HAL_Driver/Src/stm32f4xx_hal_i2s_ex.c **** /**
 140:Drivers/STM32F4xx_HAL_Driver/Src/stm32f4xx_hal_i2s_ex.c ****   * @}
 141:Drivers/STM32F4xx_HAL_Driver/Src/stm32f4xx_hal_i2s_ex.c ****   */
 142:Drivers/STM32F4xx_HAL_Driver/Src/stm32f4xx_hal_i2s_ex.c **** 
 143:Drivers/STM32F4xx_HAL_Driver/Src/stm32f4xx_hal_i2s_ex.c **** /* Private functions ---------------------------------------------------------*/
 144:Drivers/STM32F4xx_HAL_Driver/Src/stm32f4xx_hal_i2s_ex.c **** /* Exported functions --------------------------------------------------------*/
ARM GAS  /tmp/ccQYaWvF.s 			page 4


 145:Drivers/STM32F4xx_HAL_Driver/Src/stm32f4xx_hal_i2s_ex.c **** 
 146:Drivers/STM32F4xx_HAL_Driver/Src/stm32f4xx_hal_i2s_ex.c **** /** @addtogroup I2SEx I2SEx
 147:Drivers/STM32F4xx_HAL_Driver/Src/stm32f4xx_hal_i2s_ex.c ****   * @{
 148:Drivers/STM32F4xx_HAL_Driver/Src/stm32f4xx_hal_i2s_ex.c ****   */
 149:Drivers/STM32F4xx_HAL_Driver/Src/stm32f4xx_hal_i2s_ex.c **** 
 150:Drivers/STM32F4xx_HAL_Driver/Src/stm32f4xx_hal_i2s_ex.c **** /** @addtogroup I2SEx_Exported_Functions I2S Extended Exported Functions
 151:Drivers/STM32F4xx_HAL_Driver/Src/stm32f4xx_hal_i2s_ex.c ****   * @{
 152:Drivers/STM32F4xx_HAL_Driver/Src/stm32f4xx_hal_i2s_ex.c ****   */
 153:Drivers/STM32F4xx_HAL_Driver/Src/stm32f4xx_hal_i2s_ex.c **** 
 154:Drivers/STM32F4xx_HAL_Driver/Src/stm32f4xx_hal_i2s_ex.c **** /** @defgroup I2SEx_Exported_Functions_Group1 I2S Extended IO operation functions
 155:Drivers/STM32F4xx_HAL_Driver/Src/stm32f4xx_hal_i2s_ex.c ****   *  @brief   I2SEx IO operation functions
 156:Drivers/STM32F4xx_HAL_Driver/Src/stm32f4xx_hal_i2s_ex.c ****   *
 157:Drivers/STM32F4xx_HAL_Driver/Src/stm32f4xx_hal_i2s_ex.c **** @verbatim
 158:Drivers/STM32F4xx_HAL_Driver/Src/stm32f4xx_hal_i2s_ex.c ****  ===============================================================================
 159:Drivers/STM32F4xx_HAL_Driver/Src/stm32f4xx_hal_i2s_ex.c ****                        ##### IO operation functions#####
 160:Drivers/STM32F4xx_HAL_Driver/Src/stm32f4xx_hal_i2s_ex.c ****  ===============================================================================
 161:Drivers/STM32F4xx_HAL_Driver/Src/stm32f4xx_hal_i2s_ex.c ****     [..]
 162:Drivers/STM32F4xx_HAL_Driver/Src/stm32f4xx_hal_i2s_ex.c ****     This subsection provides a set of functions allowing to manage the I2S data
 163:Drivers/STM32F4xx_HAL_Driver/Src/stm32f4xx_hal_i2s_ex.c ****     transfers.
 164:Drivers/STM32F4xx_HAL_Driver/Src/stm32f4xx_hal_i2s_ex.c **** 
 165:Drivers/STM32F4xx_HAL_Driver/Src/stm32f4xx_hal_i2s_ex.c ****     (#) There are two modes of transfer:
 166:Drivers/STM32F4xx_HAL_Driver/Src/stm32f4xx_hal_i2s_ex.c ****        (++) Blocking mode : The communication is performed in the polling mode.
 167:Drivers/STM32F4xx_HAL_Driver/Src/stm32f4xx_hal_i2s_ex.c ****             The status of all data processing is returned by the same function
 168:Drivers/STM32F4xx_HAL_Driver/Src/stm32f4xx_hal_i2s_ex.c ****             after finishing transfer.
 169:Drivers/STM32F4xx_HAL_Driver/Src/stm32f4xx_hal_i2s_ex.c ****        (++) No-Blocking mode : The communication is performed using Interrupts
 170:Drivers/STM32F4xx_HAL_Driver/Src/stm32f4xx_hal_i2s_ex.c ****             or DMA. These functions return the status of the transfer startup.
 171:Drivers/STM32F4xx_HAL_Driver/Src/stm32f4xx_hal_i2s_ex.c ****             The end of the data processing will be indicated through the
 172:Drivers/STM32F4xx_HAL_Driver/Src/stm32f4xx_hal_i2s_ex.c ****             dedicated I2S IRQ when using Interrupt mode or the DMA IRQ when
 173:Drivers/STM32F4xx_HAL_Driver/Src/stm32f4xx_hal_i2s_ex.c ****             using DMA mode.
 174:Drivers/STM32F4xx_HAL_Driver/Src/stm32f4xx_hal_i2s_ex.c **** 
 175:Drivers/STM32F4xx_HAL_Driver/Src/stm32f4xx_hal_i2s_ex.c ****     (#) Blocking mode functions are :
 176:Drivers/STM32F4xx_HAL_Driver/Src/stm32f4xx_hal_i2s_ex.c ****         (++) HAL_I2SEx_TransmitReceive()
 177:Drivers/STM32F4xx_HAL_Driver/Src/stm32f4xx_hal_i2s_ex.c **** 
 178:Drivers/STM32F4xx_HAL_Driver/Src/stm32f4xx_hal_i2s_ex.c ****     (#) No-Blocking mode functions with Interrupt are :
 179:Drivers/STM32F4xx_HAL_Driver/Src/stm32f4xx_hal_i2s_ex.c ****         (++) HAL_I2SEx_TransmitReceive_IT()
 180:Drivers/STM32F4xx_HAL_Driver/Src/stm32f4xx_hal_i2s_ex.c ****         (++) HAL_I2SEx_FullDuplex_IRQHandler()
 181:Drivers/STM32F4xx_HAL_Driver/Src/stm32f4xx_hal_i2s_ex.c **** 
 182:Drivers/STM32F4xx_HAL_Driver/Src/stm32f4xx_hal_i2s_ex.c ****     (#) No-Blocking mode functions with DMA are :
 183:Drivers/STM32F4xx_HAL_Driver/Src/stm32f4xx_hal_i2s_ex.c ****         (++) HAL_I2SEx_TransmitReceive_DMA()
 184:Drivers/STM32F4xx_HAL_Driver/Src/stm32f4xx_hal_i2s_ex.c **** 
 185:Drivers/STM32F4xx_HAL_Driver/Src/stm32f4xx_hal_i2s_ex.c ****     (#) A set of Transfer Complete Callback are provided in non Blocking mode:
 186:Drivers/STM32F4xx_HAL_Driver/Src/stm32f4xx_hal_i2s_ex.c ****         (++) HAL_I2SEx_TxRxCpltCallback()
 187:Drivers/STM32F4xx_HAL_Driver/Src/stm32f4xx_hal_i2s_ex.c **** @endverbatim
 188:Drivers/STM32F4xx_HAL_Driver/Src/stm32f4xx_hal_i2s_ex.c ****   * @{
 189:Drivers/STM32F4xx_HAL_Driver/Src/stm32f4xx_hal_i2s_ex.c ****   */
 190:Drivers/STM32F4xx_HAL_Driver/Src/stm32f4xx_hal_i2s_ex.c **** /**
 191:Drivers/STM32F4xx_HAL_Driver/Src/stm32f4xx_hal_i2s_ex.c ****   * @brief  Full-Duplex Transmit/Receive data in blocking mode.
 192:Drivers/STM32F4xx_HAL_Driver/Src/stm32f4xx_hal_i2s_ex.c ****   * @param  hi2s pointer to a I2S_HandleTypeDef structure that contains
 193:Drivers/STM32F4xx_HAL_Driver/Src/stm32f4xx_hal_i2s_ex.c ****   *         the configuration information for I2S module
 194:Drivers/STM32F4xx_HAL_Driver/Src/stm32f4xx_hal_i2s_ex.c ****   * @param  pTxData a 16-bit pointer to the Transmit data buffer.
 195:Drivers/STM32F4xx_HAL_Driver/Src/stm32f4xx_hal_i2s_ex.c ****   * @param  pRxData a 16-bit pointer to the Receive data buffer.
 196:Drivers/STM32F4xx_HAL_Driver/Src/stm32f4xx_hal_i2s_ex.c ****   * @param  Size number of data sample to be sent:
 197:Drivers/STM32F4xx_HAL_Driver/Src/stm32f4xx_hal_i2s_ex.c ****   * @note   When a 16-bit data frame or a 16-bit data frame extended is selected during the I2S
 198:Drivers/STM32F4xx_HAL_Driver/Src/stm32f4xx_hal_i2s_ex.c ****   *         configuration phase, the Size parameter means the number of 16-bit data length
 199:Drivers/STM32F4xx_HAL_Driver/Src/stm32f4xx_hal_i2s_ex.c ****   *         in the transaction and when a 24-bit data frame or a 32-bit data frame is selected
 200:Drivers/STM32F4xx_HAL_Driver/Src/stm32f4xx_hal_i2s_ex.c ****   *         the Size parameter means the number of 16-bit data length.
 201:Drivers/STM32F4xx_HAL_Driver/Src/stm32f4xx_hal_i2s_ex.c ****   * @param  Timeout Timeout duration
ARM GAS  /tmp/ccQYaWvF.s 			page 5


 202:Drivers/STM32F4xx_HAL_Driver/Src/stm32f4xx_hal_i2s_ex.c ****   * @note   The I2S is kept enabled at the end of transaction to avoid the clock de-synchronization
 203:Drivers/STM32F4xx_HAL_Driver/Src/stm32f4xx_hal_i2s_ex.c ****   *         between Master and Slave(example: audio streaming).
 204:Drivers/STM32F4xx_HAL_Driver/Src/stm32f4xx_hal_i2s_ex.c ****   * @retval HAL status
 205:Drivers/STM32F4xx_HAL_Driver/Src/stm32f4xx_hal_i2s_ex.c ****   */
 206:Drivers/STM32F4xx_HAL_Driver/Src/stm32f4xx_hal_i2s_ex.c **** HAL_StatusTypeDef HAL_I2SEx_TransmitReceive(I2S_HandleTypeDef *hi2s,
 207:Drivers/STM32F4xx_HAL_Driver/Src/stm32f4xx_hal_i2s_ex.c ****                                             uint16_t *pTxData,
 208:Drivers/STM32F4xx_HAL_Driver/Src/stm32f4xx_hal_i2s_ex.c ****                                             uint16_t *pRxData,
 209:Drivers/STM32F4xx_HAL_Driver/Src/stm32f4xx_hal_i2s_ex.c ****                                             uint16_t Size,
 210:Drivers/STM32F4xx_HAL_Driver/Src/stm32f4xx_hal_i2s_ex.c ****                                             uint32_t Timeout)
 211:Drivers/STM32F4xx_HAL_Driver/Src/stm32f4xx_hal_i2s_ex.c **** {
 212:Drivers/STM32F4xx_HAL_Driver/Src/stm32f4xx_hal_i2s_ex.c ****   uint32_t tmp1 = 0U;
 213:Drivers/STM32F4xx_HAL_Driver/Src/stm32f4xx_hal_i2s_ex.c **** 
 214:Drivers/STM32F4xx_HAL_Driver/Src/stm32f4xx_hal_i2s_ex.c ****   if (hi2s->State != HAL_I2S_STATE_READY)
 215:Drivers/STM32F4xx_HAL_Driver/Src/stm32f4xx_hal_i2s_ex.c ****   {
 216:Drivers/STM32F4xx_HAL_Driver/Src/stm32f4xx_hal_i2s_ex.c ****     return HAL_BUSY;
 217:Drivers/STM32F4xx_HAL_Driver/Src/stm32f4xx_hal_i2s_ex.c ****   }
 218:Drivers/STM32F4xx_HAL_Driver/Src/stm32f4xx_hal_i2s_ex.c **** 
 219:Drivers/STM32F4xx_HAL_Driver/Src/stm32f4xx_hal_i2s_ex.c ****   if ((pTxData == NULL) || (pRxData == NULL) || (Size == 0U))
 220:Drivers/STM32F4xx_HAL_Driver/Src/stm32f4xx_hal_i2s_ex.c ****   {
 221:Drivers/STM32F4xx_HAL_Driver/Src/stm32f4xx_hal_i2s_ex.c ****     return HAL_ERROR;
 222:Drivers/STM32F4xx_HAL_Driver/Src/stm32f4xx_hal_i2s_ex.c ****   }
 223:Drivers/STM32F4xx_HAL_Driver/Src/stm32f4xx_hal_i2s_ex.c **** 
 224:Drivers/STM32F4xx_HAL_Driver/Src/stm32f4xx_hal_i2s_ex.c ****   /* Process Locked */
 225:Drivers/STM32F4xx_HAL_Driver/Src/stm32f4xx_hal_i2s_ex.c ****   __HAL_LOCK(hi2s);
 226:Drivers/STM32F4xx_HAL_Driver/Src/stm32f4xx_hal_i2s_ex.c **** 
 227:Drivers/STM32F4xx_HAL_Driver/Src/stm32f4xx_hal_i2s_ex.c ****   tmp1 = hi2s->Instance->I2SCFGR & (SPI_I2SCFGR_DATLEN | SPI_I2SCFGR_CHLEN);
 228:Drivers/STM32F4xx_HAL_Driver/Src/stm32f4xx_hal_i2s_ex.c ****   /* Check the Data format: When a 16-bit data frame or a 16-bit data frame extended
 229:Drivers/STM32F4xx_HAL_Driver/Src/stm32f4xx_hal_i2s_ex.c ****      is selected during the I2S configuration phase, the Size parameter means the number
 230:Drivers/STM32F4xx_HAL_Driver/Src/stm32f4xx_hal_i2s_ex.c ****      of 16-bit data length in the transaction and when a 24-bit data frame or a 32-bit data
 231:Drivers/STM32F4xx_HAL_Driver/Src/stm32f4xx_hal_i2s_ex.c ****      frame is selected the Size parameter means the number of 16-bit data length. */
 232:Drivers/STM32F4xx_HAL_Driver/Src/stm32f4xx_hal_i2s_ex.c ****   if ((tmp1 == I2S_DATAFORMAT_24B) || (tmp1 == I2S_DATAFORMAT_32B))
 233:Drivers/STM32F4xx_HAL_Driver/Src/stm32f4xx_hal_i2s_ex.c ****   {
 234:Drivers/STM32F4xx_HAL_Driver/Src/stm32f4xx_hal_i2s_ex.c ****     hi2s->TxXferSize  = (Size << 1U);
 235:Drivers/STM32F4xx_HAL_Driver/Src/stm32f4xx_hal_i2s_ex.c ****     hi2s->TxXferCount = (Size << 1U);
 236:Drivers/STM32F4xx_HAL_Driver/Src/stm32f4xx_hal_i2s_ex.c ****     hi2s->RxXferSize  = (Size << 1U);
 237:Drivers/STM32F4xx_HAL_Driver/Src/stm32f4xx_hal_i2s_ex.c ****     hi2s->RxXferCount = (Size << 1U);
 238:Drivers/STM32F4xx_HAL_Driver/Src/stm32f4xx_hal_i2s_ex.c ****   }
 239:Drivers/STM32F4xx_HAL_Driver/Src/stm32f4xx_hal_i2s_ex.c ****   else
 240:Drivers/STM32F4xx_HAL_Driver/Src/stm32f4xx_hal_i2s_ex.c ****   {
 241:Drivers/STM32F4xx_HAL_Driver/Src/stm32f4xx_hal_i2s_ex.c ****     hi2s->TxXferSize  = Size;
 242:Drivers/STM32F4xx_HAL_Driver/Src/stm32f4xx_hal_i2s_ex.c ****     hi2s->TxXferCount = Size;
 243:Drivers/STM32F4xx_HAL_Driver/Src/stm32f4xx_hal_i2s_ex.c ****     hi2s->RxXferSize  = Size;
 244:Drivers/STM32F4xx_HAL_Driver/Src/stm32f4xx_hal_i2s_ex.c ****     hi2s->RxXferCount = Size;
 245:Drivers/STM32F4xx_HAL_Driver/Src/stm32f4xx_hal_i2s_ex.c ****   }
 246:Drivers/STM32F4xx_HAL_Driver/Src/stm32f4xx_hal_i2s_ex.c **** 
 247:Drivers/STM32F4xx_HAL_Driver/Src/stm32f4xx_hal_i2s_ex.c ****   /* Set state and reset error code */
 248:Drivers/STM32F4xx_HAL_Driver/Src/stm32f4xx_hal_i2s_ex.c ****   hi2s->ErrorCode = HAL_I2S_ERROR_NONE;
 249:Drivers/STM32F4xx_HAL_Driver/Src/stm32f4xx_hal_i2s_ex.c ****   hi2s->State = HAL_I2S_STATE_BUSY_TX_RX;
 250:Drivers/STM32F4xx_HAL_Driver/Src/stm32f4xx_hal_i2s_ex.c **** 
 251:Drivers/STM32F4xx_HAL_Driver/Src/stm32f4xx_hal_i2s_ex.c ****   tmp1 = hi2s->Instance->I2SCFGR & SPI_I2SCFGR_I2SCFG;
 252:Drivers/STM32F4xx_HAL_Driver/Src/stm32f4xx_hal_i2s_ex.c ****   /* Check if the I2S_MODE_MASTER_TX or I2S_MODE_SLAVE_TX Mode is selected */
 253:Drivers/STM32F4xx_HAL_Driver/Src/stm32f4xx_hal_i2s_ex.c ****   if ((tmp1 == I2S_MODE_MASTER_TX) || (tmp1 == I2S_MODE_SLAVE_TX))
 254:Drivers/STM32F4xx_HAL_Driver/Src/stm32f4xx_hal_i2s_ex.c ****   {
 255:Drivers/STM32F4xx_HAL_Driver/Src/stm32f4xx_hal_i2s_ex.c ****     /* Prepare the First Data before enabling the I2S */
 256:Drivers/STM32F4xx_HAL_Driver/Src/stm32f4xx_hal_i2s_ex.c ****     hi2s->Instance->DR = (*pTxData++);
 257:Drivers/STM32F4xx_HAL_Driver/Src/stm32f4xx_hal_i2s_ex.c ****     hi2s->TxXferCount--;
 258:Drivers/STM32F4xx_HAL_Driver/Src/stm32f4xx_hal_i2s_ex.c **** 
ARM GAS  /tmp/ccQYaWvF.s 			page 6


 259:Drivers/STM32F4xx_HAL_Driver/Src/stm32f4xx_hal_i2s_ex.c ****     /* Enable I2Sext(receiver) before enabling I2Sx peripheral */
 260:Drivers/STM32F4xx_HAL_Driver/Src/stm32f4xx_hal_i2s_ex.c ****     __HAL_I2SEXT_ENABLE(hi2s);
 261:Drivers/STM32F4xx_HAL_Driver/Src/stm32f4xx_hal_i2s_ex.c **** 
 262:Drivers/STM32F4xx_HAL_Driver/Src/stm32f4xx_hal_i2s_ex.c ****     /* Enable I2Sx peripheral */
 263:Drivers/STM32F4xx_HAL_Driver/Src/stm32f4xx_hal_i2s_ex.c ****     __HAL_I2S_ENABLE(hi2s);
 264:Drivers/STM32F4xx_HAL_Driver/Src/stm32f4xx_hal_i2s_ex.c **** 
 265:Drivers/STM32F4xx_HAL_Driver/Src/stm32f4xx_hal_i2s_ex.c ****     /* Check if Master Receiver mode is selected */
 266:Drivers/STM32F4xx_HAL_Driver/Src/stm32f4xx_hal_i2s_ex.c ****     if ((hi2s->Instance->I2SCFGR & SPI_I2SCFGR_I2SCFG) == I2S_MODE_MASTER_TX)
 267:Drivers/STM32F4xx_HAL_Driver/Src/stm32f4xx_hal_i2s_ex.c ****     {
 268:Drivers/STM32F4xx_HAL_Driver/Src/stm32f4xx_hal_i2s_ex.c ****       /* Clear the Overrun Flag by a read operation on the SPI_DR register followed by a read
 269:Drivers/STM32F4xx_HAL_Driver/Src/stm32f4xx_hal_i2s_ex.c ****       access to the SPI_SR register. */
 270:Drivers/STM32F4xx_HAL_Driver/Src/stm32f4xx_hal_i2s_ex.c ****       __HAL_I2SEXT_CLEAR_OVRFLAG(hi2s);
 271:Drivers/STM32F4xx_HAL_Driver/Src/stm32f4xx_hal_i2s_ex.c ****     }
 272:Drivers/STM32F4xx_HAL_Driver/Src/stm32f4xx_hal_i2s_ex.c **** 
 273:Drivers/STM32F4xx_HAL_Driver/Src/stm32f4xx_hal_i2s_ex.c ****     while ((hi2s->RxXferCount > 0U) || (hi2s->TxXferCount > 0U))
 274:Drivers/STM32F4xx_HAL_Driver/Src/stm32f4xx_hal_i2s_ex.c ****     {
 275:Drivers/STM32F4xx_HAL_Driver/Src/stm32f4xx_hal_i2s_ex.c ****       if (hi2s->TxXferCount > 0U)
 276:Drivers/STM32F4xx_HAL_Driver/Src/stm32f4xx_hal_i2s_ex.c ****       {
 277:Drivers/STM32F4xx_HAL_Driver/Src/stm32f4xx_hal_i2s_ex.c ****         /* Wait until TXE flag is set */
 278:Drivers/STM32F4xx_HAL_Driver/Src/stm32f4xx_hal_i2s_ex.c ****         if (I2SEx_FullDuplexWaitFlagStateUntilTimeout(hi2s, I2S_FLAG_TXE, SET, Timeout, I2S_USE_I2S
 279:Drivers/STM32F4xx_HAL_Driver/Src/stm32f4xx_hal_i2s_ex.c ****         {
 280:Drivers/STM32F4xx_HAL_Driver/Src/stm32f4xx_hal_i2s_ex.c ****           /* Set the error code */
 281:Drivers/STM32F4xx_HAL_Driver/Src/stm32f4xx_hal_i2s_ex.c ****           SET_BIT(hi2s->ErrorCode, HAL_I2S_ERROR_TIMEOUT);
 282:Drivers/STM32F4xx_HAL_Driver/Src/stm32f4xx_hal_i2s_ex.c ****           hi2s->State = HAL_I2S_STATE_READY;
 283:Drivers/STM32F4xx_HAL_Driver/Src/stm32f4xx_hal_i2s_ex.c **** 
 284:Drivers/STM32F4xx_HAL_Driver/Src/stm32f4xx_hal_i2s_ex.c ****           /* Process UnLock */
 285:Drivers/STM32F4xx_HAL_Driver/Src/stm32f4xx_hal_i2s_ex.c ****           __HAL_UNLOCK(hi2s);
 286:Drivers/STM32F4xx_HAL_Driver/Src/stm32f4xx_hal_i2s_ex.c ****           return HAL_ERROR;
 287:Drivers/STM32F4xx_HAL_Driver/Src/stm32f4xx_hal_i2s_ex.c ****         }
 288:Drivers/STM32F4xx_HAL_Driver/Src/stm32f4xx_hal_i2s_ex.c ****         /* Write Data on DR register */
 289:Drivers/STM32F4xx_HAL_Driver/Src/stm32f4xx_hal_i2s_ex.c ****         hi2s->Instance->DR = (*pTxData++);
 290:Drivers/STM32F4xx_HAL_Driver/Src/stm32f4xx_hal_i2s_ex.c ****         hi2s->TxXferCount--;
 291:Drivers/STM32F4xx_HAL_Driver/Src/stm32f4xx_hal_i2s_ex.c **** 
 292:Drivers/STM32F4xx_HAL_Driver/Src/stm32f4xx_hal_i2s_ex.c ****         /* Check if an underrun occurs */
 293:Drivers/STM32F4xx_HAL_Driver/Src/stm32f4xx_hal_i2s_ex.c ****         if ((__HAL_I2S_GET_FLAG(hi2s, I2S_FLAG_UDR) == SET) && (tmp1 == I2S_MODE_SLAVE_TX))
 294:Drivers/STM32F4xx_HAL_Driver/Src/stm32f4xx_hal_i2s_ex.c ****         {
 295:Drivers/STM32F4xx_HAL_Driver/Src/stm32f4xx_hal_i2s_ex.c ****           /* Clear Underrun flag */
 296:Drivers/STM32F4xx_HAL_Driver/Src/stm32f4xx_hal_i2s_ex.c ****           __HAL_I2S_CLEAR_UDRFLAG(hi2s);
 297:Drivers/STM32F4xx_HAL_Driver/Src/stm32f4xx_hal_i2s_ex.c **** 
 298:Drivers/STM32F4xx_HAL_Driver/Src/stm32f4xx_hal_i2s_ex.c ****           /* Set the error code */
 299:Drivers/STM32F4xx_HAL_Driver/Src/stm32f4xx_hal_i2s_ex.c ****           SET_BIT(hi2s->ErrorCode, HAL_I2S_ERROR_UDR);
 300:Drivers/STM32F4xx_HAL_Driver/Src/stm32f4xx_hal_i2s_ex.c ****         }
 301:Drivers/STM32F4xx_HAL_Driver/Src/stm32f4xx_hal_i2s_ex.c ****       }
 302:Drivers/STM32F4xx_HAL_Driver/Src/stm32f4xx_hal_i2s_ex.c ****       if (hi2s->RxXferCount > 0U)
 303:Drivers/STM32F4xx_HAL_Driver/Src/stm32f4xx_hal_i2s_ex.c ****       {
 304:Drivers/STM32F4xx_HAL_Driver/Src/stm32f4xx_hal_i2s_ex.c ****         /* Wait until RXNE flag is set */
 305:Drivers/STM32F4xx_HAL_Driver/Src/stm32f4xx_hal_i2s_ex.c ****         if (I2SEx_FullDuplexWaitFlagStateUntilTimeout(hi2s, I2S_FLAG_RXNE, SET, Timeout, I2S_USE_I2
 306:Drivers/STM32F4xx_HAL_Driver/Src/stm32f4xx_hal_i2s_ex.c ****         {
 307:Drivers/STM32F4xx_HAL_Driver/Src/stm32f4xx_hal_i2s_ex.c ****           /* Set the error code */
 308:Drivers/STM32F4xx_HAL_Driver/Src/stm32f4xx_hal_i2s_ex.c ****           SET_BIT(hi2s->ErrorCode, HAL_I2S_ERROR_TIMEOUT);
 309:Drivers/STM32F4xx_HAL_Driver/Src/stm32f4xx_hal_i2s_ex.c ****           hi2s->State = HAL_I2S_STATE_READY;
 310:Drivers/STM32F4xx_HAL_Driver/Src/stm32f4xx_hal_i2s_ex.c **** 
 311:Drivers/STM32F4xx_HAL_Driver/Src/stm32f4xx_hal_i2s_ex.c ****           /* Process UnLock */
 312:Drivers/STM32F4xx_HAL_Driver/Src/stm32f4xx_hal_i2s_ex.c ****           __HAL_UNLOCK(hi2s);
 313:Drivers/STM32F4xx_HAL_Driver/Src/stm32f4xx_hal_i2s_ex.c ****           return HAL_ERROR;
 314:Drivers/STM32F4xx_HAL_Driver/Src/stm32f4xx_hal_i2s_ex.c ****         }
 315:Drivers/STM32F4xx_HAL_Driver/Src/stm32f4xx_hal_i2s_ex.c ****         /* Read Data from DR register */
ARM GAS  /tmp/ccQYaWvF.s 			page 7


 316:Drivers/STM32F4xx_HAL_Driver/Src/stm32f4xx_hal_i2s_ex.c ****         (*pRxData++) = I2SxEXT(hi2s->Instance)->DR;
 317:Drivers/STM32F4xx_HAL_Driver/Src/stm32f4xx_hal_i2s_ex.c ****         hi2s->RxXferCount--;
 318:Drivers/STM32F4xx_HAL_Driver/Src/stm32f4xx_hal_i2s_ex.c **** 
 319:Drivers/STM32F4xx_HAL_Driver/Src/stm32f4xx_hal_i2s_ex.c ****         /* Check if an overrun occurs */
 320:Drivers/STM32F4xx_HAL_Driver/Src/stm32f4xx_hal_i2s_ex.c ****         if (__HAL_I2SEXT_GET_FLAG(hi2s, I2S_FLAG_OVR) == SET)
 321:Drivers/STM32F4xx_HAL_Driver/Src/stm32f4xx_hal_i2s_ex.c ****         {
 322:Drivers/STM32F4xx_HAL_Driver/Src/stm32f4xx_hal_i2s_ex.c ****           /* Clear Overrun flag */
 323:Drivers/STM32F4xx_HAL_Driver/Src/stm32f4xx_hal_i2s_ex.c ****           __HAL_I2S_CLEAR_OVRFLAG(hi2s);
 324:Drivers/STM32F4xx_HAL_Driver/Src/stm32f4xx_hal_i2s_ex.c **** 
 325:Drivers/STM32F4xx_HAL_Driver/Src/stm32f4xx_hal_i2s_ex.c ****           /* Set the error code */
 326:Drivers/STM32F4xx_HAL_Driver/Src/stm32f4xx_hal_i2s_ex.c ****           SET_BIT(hi2s->ErrorCode, HAL_I2S_ERROR_OVR);
 327:Drivers/STM32F4xx_HAL_Driver/Src/stm32f4xx_hal_i2s_ex.c ****         }
 328:Drivers/STM32F4xx_HAL_Driver/Src/stm32f4xx_hal_i2s_ex.c ****       }
 329:Drivers/STM32F4xx_HAL_Driver/Src/stm32f4xx_hal_i2s_ex.c ****     }
 330:Drivers/STM32F4xx_HAL_Driver/Src/stm32f4xx_hal_i2s_ex.c ****   }
 331:Drivers/STM32F4xx_HAL_Driver/Src/stm32f4xx_hal_i2s_ex.c ****   /* The I2S_MODE_MASTER_RX or I2S_MODE_SLAVE_RX Mode is selected */
 332:Drivers/STM32F4xx_HAL_Driver/Src/stm32f4xx_hal_i2s_ex.c ****   else
 333:Drivers/STM32F4xx_HAL_Driver/Src/stm32f4xx_hal_i2s_ex.c ****   {
 334:Drivers/STM32F4xx_HAL_Driver/Src/stm32f4xx_hal_i2s_ex.c ****     /* Prepare the First Data before enabling the I2S */
 335:Drivers/STM32F4xx_HAL_Driver/Src/stm32f4xx_hal_i2s_ex.c ****     I2SxEXT(hi2s->Instance)->DR = (*pTxData++);
 336:Drivers/STM32F4xx_HAL_Driver/Src/stm32f4xx_hal_i2s_ex.c ****     hi2s->TxXferCount--;
 337:Drivers/STM32F4xx_HAL_Driver/Src/stm32f4xx_hal_i2s_ex.c **** 
 338:Drivers/STM32F4xx_HAL_Driver/Src/stm32f4xx_hal_i2s_ex.c ****     /* Enable I2Sext(transmitter) after enabling I2Sx peripheral */
 339:Drivers/STM32F4xx_HAL_Driver/Src/stm32f4xx_hal_i2s_ex.c ****     __HAL_I2SEXT_ENABLE(hi2s);
 340:Drivers/STM32F4xx_HAL_Driver/Src/stm32f4xx_hal_i2s_ex.c **** 
 341:Drivers/STM32F4xx_HAL_Driver/Src/stm32f4xx_hal_i2s_ex.c ****     /* Enable I2S peripheral before the I2Sext*/
 342:Drivers/STM32F4xx_HAL_Driver/Src/stm32f4xx_hal_i2s_ex.c ****     __HAL_I2S_ENABLE(hi2s);
 343:Drivers/STM32F4xx_HAL_Driver/Src/stm32f4xx_hal_i2s_ex.c **** 
 344:Drivers/STM32F4xx_HAL_Driver/Src/stm32f4xx_hal_i2s_ex.c ****     /* Check if Master Receiver mode is selected */
 345:Drivers/STM32F4xx_HAL_Driver/Src/stm32f4xx_hal_i2s_ex.c ****     if ((hi2s->Instance->I2SCFGR & SPI_I2SCFGR_I2SCFG) == I2S_MODE_MASTER_RX)
 346:Drivers/STM32F4xx_HAL_Driver/Src/stm32f4xx_hal_i2s_ex.c ****     {
 347:Drivers/STM32F4xx_HAL_Driver/Src/stm32f4xx_hal_i2s_ex.c ****       /* Clear the Overrun Flag by a read operation on the SPI_DR register followed by a read
 348:Drivers/STM32F4xx_HAL_Driver/Src/stm32f4xx_hal_i2s_ex.c ****       access to the SPI_SR register. */
 349:Drivers/STM32F4xx_HAL_Driver/Src/stm32f4xx_hal_i2s_ex.c ****       __HAL_I2S_CLEAR_OVRFLAG(hi2s);
 350:Drivers/STM32F4xx_HAL_Driver/Src/stm32f4xx_hal_i2s_ex.c ****     }
 351:Drivers/STM32F4xx_HAL_Driver/Src/stm32f4xx_hal_i2s_ex.c **** 
 352:Drivers/STM32F4xx_HAL_Driver/Src/stm32f4xx_hal_i2s_ex.c ****     while ((hi2s->RxXferCount > 0U) || (hi2s->TxXferCount > 0U))
 353:Drivers/STM32F4xx_HAL_Driver/Src/stm32f4xx_hal_i2s_ex.c ****     {
 354:Drivers/STM32F4xx_HAL_Driver/Src/stm32f4xx_hal_i2s_ex.c ****       if (hi2s->TxXferCount > 0U)
 355:Drivers/STM32F4xx_HAL_Driver/Src/stm32f4xx_hal_i2s_ex.c ****       {
 356:Drivers/STM32F4xx_HAL_Driver/Src/stm32f4xx_hal_i2s_ex.c ****         /* Wait until TXE flag is set */
 357:Drivers/STM32F4xx_HAL_Driver/Src/stm32f4xx_hal_i2s_ex.c ****         if (I2SEx_FullDuplexWaitFlagStateUntilTimeout(hi2s, I2S_FLAG_TXE, SET, Timeout, I2S_USE_I2S
 358:Drivers/STM32F4xx_HAL_Driver/Src/stm32f4xx_hal_i2s_ex.c ****         {
 359:Drivers/STM32F4xx_HAL_Driver/Src/stm32f4xx_hal_i2s_ex.c ****           /* Set the error code */
 360:Drivers/STM32F4xx_HAL_Driver/Src/stm32f4xx_hal_i2s_ex.c ****           SET_BIT(hi2s->ErrorCode, HAL_I2S_ERROR_TIMEOUT);
 361:Drivers/STM32F4xx_HAL_Driver/Src/stm32f4xx_hal_i2s_ex.c ****           hi2s->State = HAL_I2S_STATE_READY;
 362:Drivers/STM32F4xx_HAL_Driver/Src/stm32f4xx_hal_i2s_ex.c **** 
 363:Drivers/STM32F4xx_HAL_Driver/Src/stm32f4xx_hal_i2s_ex.c ****           /* Process UnLock */
 364:Drivers/STM32F4xx_HAL_Driver/Src/stm32f4xx_hal_i2s_ex.c ****           __HAL_UNLOCK(hi2s);
 365:Drivers/STM32F4xx_HAL_Driver/Src/stm32f4xx_hal_i2s_ex.c ****           return HAL_ERROR;
 366:Drivers/STM32F4xx_HAL_Driver/Src/stm32f4xx_hal_i2s_ex.c ****         }
 367:Drivers/STM32F4xx_HAL_Driver/Src/stm32f4xx_hal_i2s_ex.c ****         /* Write Data on DR register */
 368:Drivers/STM32F4xx_HAL_Driver/Src/stm32f4xx_hal_i2s_ex.c ****         I2SxEXT(hi2s->Instance)->DR = (*pTxData++);
 369:Drivers/STM32F4xx_HAL_Driver/Src/stm32f4xx_hal_i2s_ex.c ****         hi2s->TxXferCount--;
 370:Drivers/STM32F4xx_HAL_Driver/Src/stm32f4xx_hal_i2s_ex.c **** 
 371:Drivers/STM32F4xx_HAL_Driver/Src/stm32f4xx_hal_i2s_ex.c ****         /* Check if an underrun occurs */
 372:Drivers/STM32F4xx_HAL_Driver/Src/stm32f4xx_hal_i2s_ex.c ****         if ((__HAL_I2SEXT_GET_FLAG(hi2s, I2S_FLAG_UDR) == SET) && (tmp1 == I2S_MODE_SLAVE_RX))
ARM GAS  /tmp/ccQYaWvF.s 			page 8


 373:Drivers/STM32F4xx_HAL_Driver/Src/stm32f4xx_hal_i2s_ex.c ****         {
 374:Drivers/STM32F4xx_HAL_Driver/Src/stm32f4xx_hal_i2s_ex.c ****           /* Clear Underrun flag */
 375:Drivers/STM32F4xx_HAL_Driver/Src/stm32f4xx_hal_i2s_ex.c ****           __HAL_I2S_CLEAR_UDRFLAG(hi2s);
 376:Drivers/STM32F4xx_HAL_Driver/Src/stm32f4xx_hal_i2s_ex.c **** 
 377:Drivers/STM32F4xx_HAL_Driver/Src/stm32f4xx_hal_i2s_ex.c ****           /* Set the error code */
 378:Drivers/STM32F4xx_HAL_Driver/Src/stm32f4xx_hal_i2s_ex.c ****           SET_BIT(hi2s->ErrorCode, HAL_I2S_ERROR_UDR);
 379:Drivers/STM32F4xx_HAL_Driver/Src/stm32f4xx_hal_i2s_ex.c ****         }
 380:Drivers/STM32F4xx_HAL_Driver/Src/stm32f4xx_hal_i2s_ex.c ****       }
 381:Drivers/STM32F4xx_HAL_Driver/Src/stm32f4xx_hal_i2s_ex.c ****       if (hi2s->RxXferCount > 0U)
 382:Drivers/STM32F4xx_HAL_Driver/Src/stm32f4xx_hal_i2s_ex.c ****       {
 383:Drivers/STM32F4xx_HAL_Driver/Src/stm32f4xx_hal_i2s_ex.c ****         /* Wait until RXNE flag is set */
 384:Drivers/STM32F4xx_HAL_Driver/Src/stm32f4xx_hal_i2s_ex.c ****         if (I2SEx_FullDuplexWaitFlagStateUntilTimeout(hi2s, I2S_FLAG_RXNE, SET, Timeout, I2S_USE_I2
 385:Drivers/STM32F4xx_HAL_Driver/Src/stm32f4xx_hal_i2s_ex.c ****         {
 386:Drivers/STM32F4xx_HAL_Driver/Src/stm32f4xx_hal_i2s_ex.c ****           /* Set the error code */
 387:Drivers/STM32F4xx_HAL_Driver/Src/stm32f4xx_hal_i2s_ex.c ****           SET_BIT(hi2s->ErrorCode, HAL_I2S_ERROR_TIMEOUT);
 388:Drivers/STM32F4xx_HAL_Driver/Src/stm32f4xx_hal_i2s_ex.c ****           hi2s->State = HAL_I2S_STATE_READY;
 389:Drivers/STM32F4xx_HAL_Driver/Src/stm32f4xx_hal_i2s_ex.c **** 
 390:Drivers/STM32F4xx_HAL_Driver/Src/stm32f4xx_hal_i2s_ex.c ****           /* Process UnLock */
 391:Drivers/STM32F4xx_HAL_Driver/Src/stm32f4xx_hal_i2s_ex.c ****           __HAL_UNLOCK(hi2s);
 392:Drivers/STM32F4xx_HAL_Driver/Src/stm32f4xx_hal_i2s_ex.c ****           return HAL_ERROR;
 393:Drivers/STM32F4xx_HAL_Driver/Src/stm32f4xx_hal_i2s_ex.c ****         }
 394:Drivers/STM32F4xx_HAL_Driver/Src/stm32f4xx_hal_i2s_ex.c ****         /* Read Data from DR register */
 395:Drivers/STM32F4xx_HAL_Driver/Src/stm32f4xx_hal_i2s_ex.c ****         (*pRxData++) = hi2s->Instance->DR;
 396:Drivers/STM32F4xx_HAL_Driver/Src/stm32f4xx_hal_i2s_ex.c ****         hi2s->RxXferCount--;
 397:Drivers/STM32F4xx_HAL_Driver/Src/stm32f4xx_hal_i2s_ex.c **** 
 398:Drivers/STM32F4xx_HAL_Driver/Src/stm32f4xx_hal_i2s_ex.c ****         /* Check if an overrun occurs */
 399:Drivers/STM32F4xx_HAL_Driver/Src/stm32f4xx_hal_i2s_ex.c ****         if (__HAL_I2S_GET_FLAG(hi2s, I2S_FLAG_OVR) == SET)
 400:Drivers/STM32F4xx_HAL_Driver/Src/stm32f4xx_hal_i2s_ex.c ****         {
 401:Drivers/STM32F4xx_HAL_Driver/Src/stm32f4xx_hal_i2s_ex.c ****           /* Clear Overrun flag */
 402:Drivers/STM32F4xx_HAL_Driver/Src/stm32f4xx_hal_i2s_ex.c ****           __HAL_I2S_CLEAR_OVRFLAG(hi2s);
 403:Drivers/STM32F4xx_HAL_Driver/Src/stm32f4xx_hal_i2s_ex.c **** 
 404:Drivers/STM32F4xx_HAL_Driver/Src/stm32f4xx_hal_i2s_ex.c ****           /* Set the error code */
 405:Drivers/STM32F4xx_HAL_Driver/Src/stm32f4xx_hal_i2s_ex.c ****           SET_BIT(hi2s->ErrorCode, HAL_I2S_ERROR_OVR);
 406:Drivers/STM32F4xx_HAL_Driver/Src/stm32f4xx_hal_i2s_ex.c ****         }
 407:Drivers/STM32F4xx_HAL_Driver/Src/stm32f4xx_hal_i2s_ex.c ****       }
 408:Drivers/STM32F4xx_HAL_Driver/Src/stm32f4xx_hal_i2s_ex.c ****     }
 409:Drivers/STM32F4xx_HAL_Driver/Src/stm32f4xx_hal_i2s_ex.c ****   }
 410:Drivers/STM32F4xx_HAL_Driver/Src/stm32f4xx_hal_i2s_ex.c **** 
 411:Drivers/STM32F4xx_HAL_Driver/Src/stm32f4xx_hal_i2s_ex.c ****   hi2s->State = HAL_I2S_STATE_READY;
 412:Drivers/STM32F4xx_HAL_Driver/Src/stm32f4xx_hal_i2s_ex.c ****   __HAL_UNLOCK(hi2s);
 413:Drivers/STM32F4xx_HAL_Driver/Src/stm32f4xx_hal_i2s_ex.c **** 
 414:Drivers/STM32F4xx_HAL_Driver/Src/stm32f4xx_hal_i2s_ex.c ****   if (hi2s->ErrorCode != HAL_I2S_ERROR_NONE)
 415:Drivers/STM32F4xx_HAL_Driver/Src/stm32f4xx_hal_i2s_ex.c ****   {
 416:Drivers/STM32F4xx_HAL_Driver/Src/stm32f4xx_hal_i2s_ex.c ****     return HAL_ERROR;
 417:Drivers/STM32F4xx_HAL_Driver/Src/stm32f4xx_hal_i2s_ex.c ****   }
 418:Drivers/STM32F4xx_HAL_Driver/Src/stm32f4xx_hal_i2s_ex.c ****   else
 419:Drivers/STM32F4xx_HAL_Driver/Src/stm32f4xx_hal_i2s_ex.c ****   {
 420:Drivers/STM32F4xx_HAL_Driver/Src/stm32f4xx_hal_i2s_ex.c ****     return HAL_OK;
 421:Drivers/STM32F4xx_HAL_Driver/Src/stm32f4xx_hal_i2s_ex.c ****   }
 422:Drivers/STM32F4xx_HAL_Driver/Src/stm32f4xx_hal_i2s_ex.c **** }
 423:Drivers/STM32F4xx_HAL_Driver/Src/stm32f4xx_hal_i2s_ex.c **** 
 424:Drivers/STM32F4xx_HAL_Driver/Src/stm32f4xx_hal_i2s_ex.c **** /**
 425:Drivers/STM32F4xx_HAL_Driver/Src/stm32f4xx_hal_i2s_ex.c ****   * @brief  Full-Duplex Transmit/Receive data in non-blocking mode using Interrupt
 426:Drivers/STM32F4xx_HAL_Driver/Src/stm32f4xx_hal_i2s_ex.c ****   * @param  hi2s pointer to a I2S_HandleTypeDef structure that contains
 427:Drivers/STM32F4xx_HAL_Driver/Src/stm32f4xx_hal_i2s_ex.c ****   *         the configuration information for I2S module
 428:Drivers/STM32F4xx_HAL_Driver/Src/stm32f4xx_hal_i2s_ex.c ****   * @param  pTxData a 16-bit pointer to the Transmit data buffer.
 429:Drivers/STM32F4xx_HAL_Driver/Src/stm32f4xx_hal_i2s_ex.c ****   * @param  pRxData a 16-bit pointer to the Receive data buffer.
ARM GAS  /tmp/ccQYaWvF.s 			page 9


 430:Drivers/STM32F4xx_HAL_Driver/Src/stm32f4xx_hal_i2s_ex.c ****   * @param  Size number of data sample to be sent:
 431:Drivers/STM32F4xx_HAL_Driver/Src/stm32f4xx_hal_i2s_ex.c ****   * @note   When a 16-bit data frame or a 16-bit data frame extended is selected during the I2S
 432:Drivers/STM32F4xx_HAL_Driver/Src/stm32f4xx_hal_i2s_ex.c ****   *         configuration phase, the Size parameter means the number of 16-bit data length
 433:Drivers/STM32F4xx_HAL_Driver/Src/stm32f4xx_hal_i2s_ex.c ****   *         in the transaction and when a 24-bit data frame or a 32-bit data frame is selected
 434:Drivers/STM32F4xx_HAL_Driver/Src/stm32f4xx_hal_i2s_ex.c ****   *         the Size parameter means the number of 16-bit data length.
 435:Drivers/STM32F4xx_HAL_Driver/Src/stm32f4xx_hal_i2s_ex.c ****   * @note   The I2S is kept enabled at the end of transaction to avoid the clock de-synchronization
 436:Drivers/STM32F4xx_HAL_Driver/Src/stm32f4xx_hal_i2s_ex.c ****   *         between Master and Slave(example: audio streaming).
 437:Drivers/STM32F4xx_HAL_Driver/Src/stm32f4xx_hal_i2s_ex.c ****   * @retval HAL status
 438:Drivers/STM32F4xx_HAL_Driver/Src/stm32f4xx_hal_i2s_ex.c ****   */
 439:Drivers/STM32F4xx_HAL_Driver/Src/stm32f4xx_hal_i2s_ex.c **** HAL_StatusTypeDef HAL_I2SEx_TransmitReceive_IT(I2S_HandleTypeDef *hi2s,
 440:Drivers/STM32F4xx_HAL_Driver/Src/stm32f4xx_hal_i2s_ex.c ****                                                uint16_t *pTxData,
 441:Drivers/STM32F4xx_HAL_Driver/Src/stm32f4xx_hal_i2s_ex.c ****                                                uint16_t *pRxData,
 442:Drivers/STM32F4xx_HAL_Driver/Src/stm32f4xx_hal_i2s_ex.c ****                                                uint16_t Size)
 443:Drivers/STM32F4xx_HAL_Driver/Src/stm32f4xx_hal_i2s_ex.c **** {
 444:Drivers/STM32F4xx_HAL_Driver/Src/stm32f4xx_hal_i2s_ex.c ****   uint32_t tmp1 = 0U;
 445:Drivers/STM32F4xx_HAL_Driver/Src/stm32f4xx_hal_i2s_ex.c **** 
 446:Drivers/STM32F4xx_HAL_Driver/Src/stm32f4xx_hal_i2s_ex.c ****   if (hi2s->State != HAL_I2S_STATE_READY)
 447:Drivers/STM32F4xx_HAL_Driver/Src/stm32f4xx_hal_i2s_ex.c ****   {
 448:Drivers/STM32F4xx_HAL_Driver/Src/stm32f4xx_hal_i2s_ex.c ****     return HAL_BUSY;
 449:Drivers/STM32F4xx_HAL_Driver/Src/stm32f4xx_hal_i2s_ex.c ****   }
 450:Drivers/STM32F4xx_HAL_Driver/Src/stm32f4xx_hal_i2s_ex.c **** 
 451:Drivers/STM32F4xx_HAL_Driver/Src/stm32f4xx_hal_i2s_ex.c ****   if ((pTxData == NULL) || (pRxData == NULL) || (Size == 0U))
 452:Drivers/STM32F4xx_HAL_Driver/Src/stm32f4xx_hal_i2s_ex.c ****   {
 453:Drivers/STM32F4xx_HAL_Driver/Src/stm32f4xx_hal_i2s_ex.c ****     return  HAL_ERROR;
 454:Drivers/STM32F4xx_HAL_Driver/Src/stm32f4xx_hal_i2s_ex.c ****   }
 455:Drivers/STM32F4xx_HAL_Driver/Src/stm32f4xx_hal_i2s_ex.c **** 
 456:Drivers/STM32F4xx_HAL_Driver/Src/stm32f4xx_hal_i2s_ex.c ****   /* Process Locked */
 457:Drivers/STM32F4xx_HAL_Driver/Src/stm32f4xx_hal_i2s_ex.c ****   __HAL_LOCK(hi2s);
 458:Drivers/STM32F4xx_HAL_Driver/Src/stm32f4xx_hal_i2s_ex.c **** 
 459:Drivers/STM32F4xx_HAL_Driver/Src/stm32f4xx_hal_i2s_ex.c ****   hi2s->pTxBuffPtr = pTxData;
 460:Drivers/STM32F4xx_HAL_Driver/Src/stm32f4xx_hal_i2s_ex.c ****   hi2s->pRxBuffPtr = pRxData;
 461:Drivers/STM32F4xx_HAL_Driver/Src/stm32f4xx_hal_i2s_ex.c **** 
 462:Drivers/STM32F4xx_HAL_Driver/Src/stm32f4xx_hal_i2s_ex.c ****   tmp1 = hi2s->Instance->I2SCFGR & (SPI_I2SCFGR_DATLEN | SPI_I2SCFGR_CHLEN);
 463:Drivers/STM32F4xx_HAL_Driver/Src/stm32f4xx_hal_i2s_ex.c ****   /* Check the Data format: When a 16-bit data frame or a 16-bit data frame extended
 464:Drivers/STM32F4xx_HAL_Driver/Src/stm32f4xx_hal_i2s_ex.c ****   is selected during the I2S configuration phase, the Size parameter means the number
 465:Drivers/STM32F4xx_HAL_Driver/Src/stm32f4xx_hal_i2s_ex.c ****   of 16-bit data length in the transaction and when a 24-bit data frame or a 32-bit data
 466:Drivers/STM32F4xx_HAL_Driver/Src/stm32f4xx_hal_i2s_ex.c ****   frame is selected the Size parameter means the number of 16-bit data length. */
 467:Drivers/STM32F4xx_HAL_Driver/Src/stm32f4xx_hal_i2s_ex.c ****   if ((tmp1 == I2S_DATAFORMAT_24B) || (tmp1 == I2S_DATAFORMAT_32B))
 468:Drivers/STM32F4xx_HAL_Driver/Src/stm32f4xx_hal_i2s_ex.c ****   {
 469:Drivers/STM32F4xx_HAL_Driver/Src/stm32f4xx_hal_i2s_ex.c ****     hi2s->TxXferSize  = (Size << 1U);
 470:Drivers/STM32F4xx_HAL_Driver/Src/stm32f4xx_hal_i2s_ex.c ****     hi2s->TxXferCount = (Size << 1U);
 471:Drivers/STM32F4xx_HAL_Driver/Src/stm32f4xx_hal_i2s_ex.c ****     hi2s->RxXferSize  = (Size << 1U);
 472:Drivers/STM32F4xx_HAL_Driver/Src/stm32f4xx_hal_i2s_ex.c ****     hi2s->RxXferCount = (Size << 1U);
 473:Drivers/STM32F4xx_HAL_Driver/Src/stm32f4xx_hal_i2s_ex.c ****   }
 474:Drivers/STM32F4xx_HAL_Driver/Src/stm32f4xx_hal_i2s_ex.c ****   else
 475:Drivers/STM32F4xx_HAL_Driver/Src/stm32f4xx_hal_i2s_ex.c ****   {
 476:Drivers/STM32F4xx_HAL_Driver/Src/stm32f4xx_hal_i2s_ex.c ****     hi2s->TxXferSize  = Size;
 477:Drivers/STM32F4xx_HAL_Driver/Src/stm32f4xx_hal_i2s_ex.c ****     hi2s->TxXferCount = Size;
 478:Drivers/STM32F4xx_HAL_Driver/Src/stm32f4xx_hal_i2s_ex.c ****     hi2s->RxXferSize  = Size;
 479:Drivers/STM32F4xx_HAL_Driver/Src/stm32f4xx_hal_i2s_ex.c ****     hi2s->RxXferCount = Size;
 480:Drivers/STM32F4xx_HAL_Driver/Src/stm32f4xx_hal_i2s_ex.c ****   }
 481:Drivers/STM32F4xx_HAL_Driver/Src/stm32f4xx_hal_i2s_ex.c **** 
 482:Drivers/STM32F4xx_HAL_Driver/Src/stm32f4xx_hal_i2s_ex.c ****   hi2s->ErrorCode = HAL_I2S_ERROR_NONE;
 483:Drivers/STM32F4xx_HAL_Driver/Src/stm32f4xx_hal_i2s_ex.c ****   hi2s->State     = HAL_I2S_STATE_BUSY_TX_RX;
 484:Drivers/STM32F4xx_HAL_Driver/Src/stm32f4xx_hal_i2s_ex.c **** 
 485:Drivers/STM32F4xx_HAL_Driver/Src/stm32f4xx_hal_i2s_ex.c ****   /* Set the function for IT treatment */
 486:Drivers/STM32F4xx_HAL_Driver/Src/stm32f4xx_hal_i2s_ex.c ****   if ((hi2s->Init.Mode == I2S_MODE_MASTER_TX) || (hi2s->Init.Mode == I2S_MODE_SLAVE_TX))
ARM GAS  /tmp/ccQYaWvF.s 			page 10


 487:Drivers/STM32F4xx_HAL_Driver/Src/stm32f4xx_hal_i2s_ex.c ****   {
 488:Drivers/STM32F4xx_HAL_Driver/Src/stm32f4xx_hal_i2s_ex.c ****     /* Enable I2Sext RXNE and ERR interrupts */
 489:Drivers/STM32F4xx_HAL_Driver/Src/stm32f4xx_hal_i2s_ex.c ****     __HAL_I2SEXT_ENABLE_IT(hi2s, (I2S_IT_RXNE | I2S_IT_ERR));
 490:Drivers/STM32F4xx_HAL_Driver/Src/stm32f4xx_hal_i2s_ex.c **** 
 491:Drivers/STM32F4xx_HAL_Driver/Src/stm32f4xx_hal_i2s_ex.c ****     /* Enable I2Sx TXE and ERR interrupts */
 492:Drivers/STM32F4xx_HAL_Driver/Src/stm32f4xx_hal_i2s_ex.c ****     __HAL_I2S_ENABLE_IT(hi2s, (I2S_IT_TXE | I2S_IT_ERR));
 493:Drivers/STM32F4xx_HAL_Driver/Src/stm32f4xx_hal_i2s_ex.c **** 
 494:Drivers/STM32F4xx_HAL_Driver/Src/stm32f4xx_hal_i2s_ex.c ****     /* Transmit First data */
 495:Drivers/STM32F4xx_HAL_Driver/Src/stm32f4xx_hal_i2s_ex.c ****     hi2s->Instance->DR = (*hi2s->pTxBuffPtr++);
 496:Drivers/STM32F4xx_HAL_Driver/Src/stm32f4xx_hal_i2s_ex.c ****     hi2s->TxXferCount--;
 497:Drivers/STM32F4xx_HAL_Driver/Src/stm32f4xx_hal_i2s_ex.c **** 
 498:Drivers/STM32F4xx_HAL_Driver/Src/stm32f4xx_hal_i2s_ex.c ****     if (hi2s->TxXferCount == 0U)
 499:Drivers/STM32F4xx_HAL_Driver/Src/stm32f4xx_hal_i2s_ex.c ****     {
 500:Drivers/STM32F4xx_HAL_Driver/Src/stm32f4xx_hal_i2s_ex.c ****       /* Disable TXE and ERR interrupt */
 501:Drivers/STM32F4xx_HAL_Driver/Src/stm32f4xx_hal_i2s_ex.c ****       __HAL_I2S_DISABLE_IT(hi2s, (I2S_IT_TXE | I2S_IT_ERR));
 502:Drivers/STM32F4xx_HAL_Driver/Src/stm32f4xx_hal_i2s_ex.c ****     }
 503:Drivers/STM32F4xx_HAL_Driver/Src/stm32f4xx_hal_i2s_ex.c ****   }
 504:Drivers/STM32F4xx_HAL_Driver/Src/stm32f4xx_hal_i2s_ex.c ****   else  /* The I2S_MODE_MASTER_RX or I2S_MODE_SLAVE_RX Mode is selected */
 505:Drivers/STM32F4xx_HAL_Driver/Src/stm32f4xx_hal_i2s_ex.c ****   {
 506:Drivers/STM32F4xx_HAL_Driver/Src/stm32f4xx_hal_i2s_ex.c ****     /* Enable I2Sext TXE and ERR interrupts */
 507:Drivers/STM32F4xx_HAL_Driver/Src/stm32f4xx_hal_i2s_ex.c ****     __HAL_I2SEXT_ENABLE_IT(hi2s, (I2S_IT_TXE | I2S_IT_ERR));
 508:Drivers/STM32F4xx_HAL_Driver/Src/stm32f4xx_hal_i2s_ex.c **** 
 509:Drivers/STM32F4xx_HAL_Driver/Src/stm32f4xx_hal_i2s_ex.c ****     /* Enable I2Sext RXNE and ERR interrupts */
 510:Drivers/STM32F4xx_HAL_Driver/Src/stm32f4xx_hal_i2s_ex.c ****     __HAL_I2S_ENABLE_IT(hi2s, (I2S_IT_RXNE | I2S_IT_ERR));
 511:Drivers/STM32F4xx_HAL_Driver/Src/stm32f4xx_hal_i2s_ex.c **** 
 512:Drivers/STM32F4xx_HAL_Driver/Src/stm32f4xx_hal_i2s_ex.c ****     /* Transmit First data */
 513:Drivers/STM32F4xx_HAL_Driver/Src/stm32f4xx_hal_i2s_ex.c ****     I2SxEXT(hi2s->Instance)->DR = (*hi2s->pTxBuffPtr++);
 514:Drivers/STM32F4xx_HAL_Driver/Src/stm32f4xx_hal_i2s_ex.c ****     hi2s->TxXferCount--;
 515:Drivers/STM32F4xx_HAL_Driver/Src/stm32f4xx_hal_i2s_ex.c **** 
 516:Drivers/STM32F4xx_HAL_Driver/Src/stm32f4xx_hal_i2s_ex.c ****     if (hi2s->TxXferCount == 0U)
 517:Drivers/STM32F4xx_HAL_Driver/Src/stm32f4xx_hal_i2s_ex.c ****     {
 518:Drivers/STM32F4xx_HAL_Driver/Src/stm32f4xx_hal_i2s_ex.c ****       /* Disable I2Sext TXE and ERR interrupt */
 519:Drivers/STM32F4xx_HAL_Driver/Src/stm32f4xx_hal_i2s_ex.c ****       __HAL_I2SEXT_DISABLE_IT(hi2s, (I2S_IT_TXE | I2S_IT_ERR));
 520:Drivers/STM32F4xx_HAL_Driver/Src/stm32f4xx_hal_i2s_ex.c ****     }
 521:Drivers/STM32F4xx_HAL_Driver/Src/stm32f4xx_hal_i2s_ex.c ****   }
 522:Drivers/STM32F4xx_HAL_Driver/Src/stm32f4xx_hal_i2s_ex.c **** 
 523:Drivers/STM32F4xx_HAL_Driver/Src/stm32f4xx_hal_i2s_ex.c ****   __HAL_UNLOCK(hi2s);
 524:Drivers/STM32F4xx_HAL_Driver/Src/stm32f4xx_hal_i2s_ex.c ****   /* Enable I2Sext peripheral */
 525:Drivers/STM32F4xx_HAL_Driver/Src/stm32f4xx_hal_i2s_ex.c ****   __HAL_I2SEXT_ENABLE(hi2s);
 526:Drivers/STM32F4xx_HAL_Driver/Src/stm32f4xx_hal_i2s_ex.c **** 
 527:Drivers/STM32F4xx_HAL_Driver/Src/stm32f4xx_hal_i2s_ex.c ****   /* Enable I2S peripheral */
 528:Drivers/STM32F4xx_HAL_Driver/Src/stm32f4xx_hal_i2s_ex.c ****   __HAL_I2S_ENABLE(hi2s);
 529:Drivers/STM32F4xx_HAL_Driver/Src/stm32f4xx_hal_i2s_ex.c **** 
 530:Drivers/STM32F4xx_HAL_Driver/Src/stm32f4xx_hal_i2s_ex.c ****   return HAL_OK;
 531:Drivers/STM32F4xx_HAL_Driver/Src/stm32f4xx_hal_i2s_ex.c **** }
 532:Drivers/STM32F4xx_HAL_Driver/Src/stm32f4xx_hal_i2s_ex.c **** 
 533:Drivers/STM32F4xx_HAL_Driver/Src/stm32f4xx_hal_i2s_ex.c **** /**
 534:Drivers/STM32F4xx_HAL_Driver/Src/stm32f4xx_hal_i2s_ex.c ****   * @brief  Full-Duplex Transmit/Receive data in non-blocking mode using DMA
 535:Drivers/STM32F4xx_HAL_Driver/Src/stm32f4xx_hal_i2s_ex.c ****   * @param  hi2s pointer to a I2S_HandleTypeDef structure that contains
 536:Drivers/STM32F4xx_HAL_Driver/Src/stm32f4xx_hal_i2s_ex.c ****   *         the configuration information for I2S module
 537:Drivers/STM32F4xx_HAL_Driver/Src/stm32f4xx_hal_i2s_ex.c ****   * @param  pTxData a 16-bit pointer to the Transmit data buffer.
 538:Drivers/STM32F4xx_HAL_Driver/Src/stm32f4xx_hal_i2s_ex.c ****   * @param  pRxData a 16-bit pointer to the Receive data buffer.
 539:Drivers/STM32F4xx_HAL_Driver/Src/stm32f4xx_hal_i2s_ex.c ****   * @param  Size number of data sample to be sent:
 540:Drivers/STM32F4xx_HAL_Driver/Src/stm32f4xx_hal_i2s_ex.c ****   * @note   When a 16-bit data frame or a 16-bit data frame extended is selected during the I2S
 541:Drivers/STM32F4xx_HAL_Driver/Src/stm32f4xx_hal_i2s_ex.c ****   *         configuration phase, the Size parameter means the number of 16-bit data length
 542:Drivers/STM32F4xx_HAL_Driver/Src/stm32f4xx_hal_i2s_ex.c ****   *         in the transaction and when a 24-bit data frame or a 32-bit data frame is selected
 543:Drivers/STM32F4xx_HAL_Driver/Src/stm32f4xx_hal_i2s_ex.c ****   *         the Size parameter means the number of 16-bit data length.
ARM GAS  /tmp/ccQYaWvF.s 			page 11


 544:Drivers/STM32F4xx_HAL_Driver/Src/stm32f4xx_hal_i2s_ex.c ****   * @note   The I2S is kept enabled at the end of transaction to avoid the clock de-synchronization
 545:Drivers/STM32F4xx_HAL_Driver/Src/stm32f4xx_hal_i2s_ex.c ****   *         between Master and Slave(example: audio streaming).
 546:Drivers/STM32F4xx_HAL_Driver/Src/stm32f4xx_hal_i2s_ex.c ****   * @retval HAL status
 547:Drivers/STM32F4xx_HAL_Driver/Src/stm32f4xx_hal_i2s_ex.c ****   */
 548:Drivers/STM32F4xx_HAL_Driver/Src/stm32f4xx_hal_i2s_ex.c **** HAL_StatusTypeDef HAL_I2SEx_TransmitReceive_DMA(I2S_HandleTypeDef *hi2s,
 549:Drivers/STM32F4xx_HAL_Driver/Src/stm32f4xx_hal_i2s_ex.c ****                                                 uint16_t *pTxData,
 550:Drivers/STM32F4xx_HAL_Driver/Src/stm32f4xx_hal_i2s_ex.c ****                                                 uint16_t *pRxData,
 551:Drivers/STM32F4xx_HAL_Driver/Src/stm32f4xx_hal_i2s_ex.c ****                                                 uint16_t Size)
 552:Drivers/STM32F4xx_HAL_Driver/Src/stm32f4xx_hal_i2s_ex.c **** {
 553:Drivers/STM32F4xx_HAL_Driver/Src/stm32f4xx_hal_i2s_ex.c ****   uint32_t *tmp = NULL;
 554:Drivers/STM32F4xx_HAL_Driver/Src/stm32f4xx_hal_i2s_ex.c ****   uint32_t tmp1 = 0U;
 555:Drivers/STM32F4xx_HAL_Driver/Src/stm32f4xx_hal_i2s_ex.c **** 
 556:Drivers/STM32F4xx_HAL_Driver/Src/stm32f4xx_hal_i2s_ex.c ****   if (hi2s->State != HAL_I2S_STATE_READY)
 557:Drivers/STM32F4xx_HAL_Driver/Src/stm32f4xx_hal_i2s_ex.c ****   {
 558:Drivers/STM32F4xx_HAL_Driver/Src/stm32f4xx_hal_i2s_ex.c ****     return HAL_BUSY;
 559:Drivers/STM32F4xx_HAL_Driver/Src/stm32f4xx_hal_i2s_ex.c ****   }
 560:Drivers/STM32F4xx_HAL_Driver/Src/stm32f4xx_hal_i2s_ex.c **** 
 561:Drivers/STM32F4xx_HAL_Driver/Src/stm32f4xx_hal_i2s_ex.c ****   if ((pTxData == NULL) || (pRxData == NULL) || (Size == 0U))
 562:Drivers/STM32F4xx_HAL_Driver/Src/stm32f4xx_hal_i2s_ex.c ****   {
 563:Drivers/STM32F4xx_HAL_Driver/Src/stm32f4xx_hal_i2s_ex.c ****     return  HAL_ERROR;
 564:Drivers/STM32F4xx_HAL_Driver/Src/stm32f4xx_hal_i2s_ex.c ****   }
 565:Drivers/STM32F4xx_HAL_Driver/Src/stm32f4xx_hal_i2s_ex.c **** 
 566:Drivers/STM32F4xx_HAL_Driver/Src/stm32f4xx_hal_i2s_ex.c ****   /* Process Locked */
 567:Drivers/STM32F4xx_HAL_Driver/Src/stm32f4xx_hal_i2s_ex.c ****   __HAL_LOCK(hi2s);
 568:Drivers/STM32F4xx_HAL_Driver/Src/stm32f4xx_hal_i2s_ex.c **** 
 569:Drivers/STM32F4xx_HAL_Driver/Src/stm32f4xx_hal_i2s_ex.c ****   hi2s->pTxBuffPtr = pTxData;
 570:Drivers/STM32F4xx_HAL_Driver/Src/stm32f4xx_hal_i2s_ex.c ****   hi2s->pRxBuffPtr = pRxData;
 571:Drivers/STM32F4xx_HAL_Driver/Src/stm32f4xx_hal_i2s_ex.c **** 
 572:Drivers/STM32F4xx_HAL_Driver/Src/stm32f4xx_hal_i2s_ex.c ****   tmp1 = hi2s->Instance->I2SCFGR & (SPI_I2SCFGR_DATLEN | SPI_I2SCFGR_CHLEN);
 573:Drivers/STM32F4xx_HAL_Driver/Src/stm32f4xx_hal_i2s_ex.c ****   /* Check the Data format: When a 16-bit data frame or a 16-bit data frame extended
 574:Drivers/STM32F4xx_HAL_Driver/Src/stm32f4xx_hal_i2s_ex.c ****   is selected during the I2S configuration phase, the Size parameter means the number
 575:Drivers/STM32F4xx_HAL_Driver/Src/stm32f4xx_hal_i2s_ex.c ****   of 16-bit data length in the transaction and when a 24-bit data frame or a 32-bit data
 576:Drivers/STM32F4xx_HAL_Driver/Src/stm32f4xx_hal_i2s_ex.c ****   frame is selected the Size parameter means the number of 16-bit data length. */
 577:Drivers/STM32F4xx_HAL_Driver/Src/stm32f4xx_hal_i2s_ex.c ****   if ((tmp1 == I2S_DATAFORMAT_24B) || (tmp1 == I2S_DATAFORMAT_32B))
 578:Drivers/STM32F4xx_HAL_Driver/Src/stm32f4xx_hal_i2s_ex.c ****   {
 579:Drivers/STM32F4xx_HAL_Driver/Src/stm32f4xx_hal_i2s_ex.c ****     hi2s->TxXferSize  = (Size << 1U);
 580:Drivers/STM32F4xx_HAL_Driver/Src/stm32f4xx_hal_i2s_ex.c ****     hi2s->TxXferCount = (Size << 1U);
 581:Drivers/STM32F4xx_HAL_Driver/Src/stm32f4xx_hal_i2s_ex.c ****     hi2s->RxXferSize  = (Size << 1U);
 582:Drivers/STM32F4xx_HAL_Driver/Src/stm32f4xx_hal_i2s_ex.c ****     hi2s->RxXferCount = (Size << 1U);
 583:Drivers/STM32F4xx_HAL_Driver/Src/stm32f4xx_hal_i2s_ex.c ****   }
 584:Drivers/STM32F4xx_HAL_Driver/Src/stm32f4xx_hal_i2s_ex.c ****   else
 585:Drivers/STM32F4xx_HAL_Driver/Src/stm32f4xx_hal_i2s_ex.c ****   {
 586:Drivers/STM32F4xx_HAL_Driver/Src/stm32f4xx_hal_i2s_ex.c ****     hi2s->TxXferSize  = Size;
 587:Drivers/STM32F4xx_HAL_Driver/Src/stm32f4xx_hal_i2s_ex.c ****     hi2s->TxXferCount = Size;
 588:Drivers/STM32F4xx_HAL_Driver/Src/stm32f4xx_hal_i2s_ex.c ****     hi2s->RxXferSize  = Size;
 589:Drivers/STM32F4xx_HAL_Driver/Src/stm32f4xx_hal_i2s_ex.c ****     hi2s->RxXferCount = Size;
 590:Drivers/STM32F4xx_HAL_Driver/Src/stm32f4xx_hal_i2s_ex.c ****   }
 591:Drivers/STM32F4xx_HAL_Driver/Src/stm32f4xx_hal_i2s_ex.c **** 
 592:Drivers/STM32F4xx_HAL_Driver/Src/stm32f4xx_hal_i2s_ex.c ****   hi2s->ErrorCode = HAL_I2S_ERROR_NONE;
 593:Drivers/STM32F4xx_HAL_Driver/Src/stm32f4xx_hal_i2s_ex.c ****   hi2s->State     = HAL_I2S_STATE_BUSY_TX_RX;
 594:Drivers/STM32F4xx_HAL_Driver/Src/stm32f4xx_hal_i2s_ex.c **** 
 595:Drivers/STM32F4xx_HAL_Driver/Src/stm32f4xx_hal_i2s_ex.c ****   /* Set the I2S Rx DMA Half transfer complete callback */
 596:Drivers/STM32F4xx_HAL_Driver/Src/stm32f4xx_hal_i2s_ex.c ****   hi2s->hdmarx->XferHalfCpltCallback = I2SEx_TxRxDMAHalfCplt;
 597:Drivers/STM32F4xx_HAL_Driver/Src/stm32f4xx_hal_i2s_ex.c **** 
 598:Drivers/STM32F4xx_HAL_Driver/Src/stm32f4xx_hal_i2s_ex.c ****   /* Set the I2S Rx DMA transfer complete callback */
 599:Drivers/STM32F4xx_HAL_Driver/Src/stm32f4xx_hal_i2s_ex.c ****   hi2s->hdmarx->XferCpltCallback  = I2SEx_TxRxDMACplt;
 600:Drivers/STM32F4xx_HAL_Driver/Src/stm32f4xx_hal_i2s_ex.c **** 
ARM GAS  /tmp/ccQYaWvF.s 			page 12


 601:Drivers/STM32F4xx_HAL_Driver/Src/stm32f4xx_hal_i2s_ex.c ****   /* Set the I2S Rx DMA error callback */
 602:Drivers/STM32F4xx_HAL_Driver/Src/stm32f4xx_hal_i2s_ex.c ****   hi2s->hdmarx->XferErrorCallback = I2SEx_TxRxDMAError;
 603:Drivers/STM32F4xx_HAL_Driver/Src/stm32f4xx_hal_i2s_ex.c **** 
 604:Drivers/STM32F4xx_HAL_Driver/Src/stm32f4xx_hal_i2s_ex.c ****   /* Set the I2S Tx DMA Half transfer complete callback as NULL */
 605:Drivers/STM32F4xx_HAL_Driver/Src/stm32f4xx_hal_i2s_ex.c ****   hi2s->hdmatx->XferHalfCpltCallback  = NULL;
 606:Drivers/STM32F4xx_HAL_Driver/Src/stm32f4xx_hal_i2s_ex.c **** 
 607:Drivers/STM32F4xx_HAL_Driver/Src/stm32f4xx_hal_i2s_ex.c ****   /* Set the I2S Tx DMA transfer complete callback as NULL */
 608:Drivers/STM32F4xx_HAL_Driver/Src/stm32f4xx_hal_i2s_ex.c ****   hi2s->hdmatx->XferCpltCallback  = NULL;
 609:Drivers/STM32F4xx_HAL_Driver/Src/stm32f4xx_hal_i2s_ex.c **** 
 610:Drivers/STM32F4xx_HAL_Driver/Src/stm32f4xx_hal_i2s_ex.c ****   /* Set the I2S Tx DMA error callback */
 611:Drivers/STM32F4xx_HAL_Driver/Src/stm32f4xx_hal_i2s_ex.c ****   hi2s->hdmatx->XferErrorCallback = I2SEx_TxRxDMAError;
 612:Drivers/STM32F4xx_HAL_Driver/Src/stm32f4xx_hal_i2s_ex.c **** 
 613:Drivers/STM32F4xx_HAL_Driver/Src/stm32f4xx_hal_i2s_ex.c ****   tmp1 = hi2s->Instance->I2SCFGR & SPI_I2SCFGR_I2SCFG;
 614:Drivers/STM32F4xx_HAL_Driver/Src/stm32f4xx_hal_i2s_ex.c ****   /* Check if the I2S_MODE_MASTER_TX or I2S_MODE_SLAVE_TX Mode is selected */
 615:Drivers/STM32F4xx_HAL_Driver/Src/stm32f4xx_hal_i2s_ex.c ****   if ((tmp1 == I2S_MODE_MASTER_TX) || (tmp1 == I2S_MODE_SLAVE_TX))
 616:Drivers/STM32F4xx_HAL_Driver/Src/stm32f4xx_hal_i2s_ex.c ****   {
 617:Drivers/STM32F4xx_HAL_Driver/Src/stm32f4xx_hal_i2s_ex.c ****     /* Enable the Rx DMA Stream */
 618:Drivers/STM32F4xx_HAL_Driver/Src/stm32f4xx_hal_i2s_ex.c ****     tmp = (uint32_t *)&pRxData;
 619:Drivers/STM32F4xx_HAL_Driver/Src/stm32f4xx_hal_i2s_ex.c ****     HAL_DMA_Start_IT(hi2s->hdmarx, (uint32_t)&I2SxEXT(hi2s->Instance)->DR, *(uint32_t *)tmp, hi2s->
 620:Drivers/STM32F4xx_HAL_Driver/Src/stm32f4xx_hal_i2s_ex.c **** 
 621:Drivers/STM32F4xx_HAL_Driver/Src/stm32f4xx_hal_i2s_ex.c ****     /* Enable Rx DMA Request */
 622:Drivers/STM32F4xx_HAL_Driver/Src/stm32f4xx_hal_i2s_ex.c ****     SET_BIT(I2SxEXT(hi2s->Instance)->CR2, SPI_CR2_RXDMAEN);
 623:Drivers/STM32F4xx_HAL_Driver/Src/stm32f4xx_hal_i2s_ex.c **** 
 624:Drivers/STM32F4xx_HAL_Driver/Src/stm32f4xx_hal_i2s_ex.c ****     /* Enable the Tx DMA Stream */
 625:Drivers/STM32F4xx_HAL_Driver/Src/stm32f4xx_hal_i2s_ex.c ****     tmp = (uint32_t *)&pTxData;
 626:Drivers/STM32F4xx_HAL_Driver/Src/stm32f4xx_hal_i2s_ex.c ****     HAL_DMA_Start_IT(hi2s->hdmatx, *(uint32_t *)tmp, (uint32_t)&hi2s->Instance->DR, hi2s->TxXferSiz
 627:Drivers/STM32F4xx_HAL_Driver/Src/stm32f4xx_hal_i2s_ex.c **** 
 628:Drivers/STM32F4xx_HAL_Driver/Src/stm32f4xx_hal_i2s_ex.c ****     /* Enable Tx DMA Request */
 629:Drivers/STM32F4xx_HAL_Driver/Src/stm32f4xx_hal_i2s_ex.c ****     SET_BIT(hi2s->Instance->CR2, SPI_CR2_TXDMAEN);
 630:Drivers/STM32F4xx_HAL_Driver/Src/stm32f4xx_hal_i2s_ex.c ****   }
 631:Drivers/STM32F4xx_HAL_Driver/Src/stm32f4xx_hal_i2s_ex.c ****   else
 632:Drivers/STM32F4xx_HAL_Driver/Src/stm32f4xx_hal_i2s_ex.c ****   {
 633:Drivers/STM32F4xx_HAL_Driver/Src/stm32f4xx_hal_i2s_ex.c ****     /* Check if Master Receiver mode is selected */
 634:Drivers/STM32F4xx_HAL_Driver/Src/stm32f4xx_hal_i2s_ex.c ****     if ((hi2s->Instance->I2SCFGR & SPI_I2SCFGR_I2SCFG) == I2S_MODE_MASTER_RX)
 635:Drivers/STM32F4xx_HAL_Driver/Src/stm32f4xx_hal_i2s_ex.c ****     {
 636:Drivers/STM32F4xx_HAL_Driver/Src/stm32f4xx_hal_i2s_ex.c ****       /* Clear the Overrun Flag by a read operation on the SPI_DR register followed by a read
 637:Drivers/STM32F4xx_HAL_Driver/Src/stm32f4xx_hal_i2s_ex.c ****       access to the SPI_SR register. */
 638:Drivers/STM32F4xx_HAL_Driver/Src/stm32f4xx_hal_i2s_ex.c ****       __HAL_I2S_CLEAR_OVRFLAG(hi2s);
 639:Drivers/STM32F4xx_HAL_Driver/Src/stm32f4xx_hal_i2s_ex.c ****     }
 640:Drivers/STM32F4xx_HAL_Driver/Src/stm32f4xx_hal_i2s_ex.c ****     /* Enable the Tx DMA Stream */
 641:Drivers/STM32F4xx_HAL_Driver/Src/stm32f4xx_hal_i2s_ex.c ****     tmp = (uint32_t *)&pTxData;
 642:Drivers/STM32F4xx_HAL_Driver/Src/stm32f4xx_hal_i2s_ex.c ****     HAL_DMA_Start_IT(hi2s->hdmatx, *(uint32_t *)tmp, (uint32_t)&I2SxEXT(hi2s->Instance)->DR, hi2s->
 643:Drivers/STM32F4xx_HAL_Driver/Src/stm32f4xx_hal_i2s_ex.c **** 
 644:Drivers/STM32F4xx_HAL_Driver/Src/stm32f4xx_hal_i2s_ex.c ****     /* Enable Tx DMA Request */
 645:Drivers/STM32F4xx_HAL_Driver/Src/stm32f4xx_hal_i2s_ex.c ****     SET_BIT(I2SxEXT(hi2s->Instance)->CR2, SPI_CR2_TXDMAEN);
 646:Drivers/STM32F4xx_HAL_Driver/Src/stm32f4xx_hal_i2s_ex.c **** 
 647:Drivers/STM32F4xx_HAL_Driver/Src/stm32f4xx_hal_i2s_ex.c ****     /* Enable the Rx DMA Stream */
 648:Drivers/STM32F4xx_HAL_Driver/Src/stm32f4xx_hal_i2s_ex.c ****     tmp = (uint32_t *)&pRxData;
 649:Drivers/STM32F4xx_HAL_Driver/Src/stm32f4xx_hal_i2s_ex.c ****     HAL_DMA_Start_IT(hi2s->hdmarx, (uint32_t)&hi2s->Instance->DR, *(uint32_t *)tmp, hi2s->RxXferSiz
 650:Drivers/STM32F4xx_HAL_Driver/Src/stm32f4xx_hal_i2s_ex.c **** 
 651:Drivers/STM32F4xx_HAL_Driver/Src/stm32f4xx_hal_i2s_ex.c ****     /* Enable Rx DMA Request */
 652:Drivers/STM32F4xx_HAL_Driver/Src/stm32f4xx_hal_i2s_ex.c ****     SET_BIT(hi2s->Instance->CR2, SPI_CR2_RXDMAEN);
 653:Drivers/STM32F4xx_HAL_Driver/Src/stm32f4xx_hal_i2s_ex.c ****   }
 654:Drivers/STM32F4xx_HAL_Driver/Src/stm32f4xx_hal_i2s_ex.c **** 
 655:Drivers/STM32F4xx_HAL_Driver/Src/stm32f4xx_hal_i2s_ex.c ****   __HAL_UNLOCK(hi2s);
 656:Drivers/STM32F4xx_HAL_Driver/Src/stm32f4xx_hal_i2s_ex.c ****   /* Check if the I2S is already enabled */
 657:Drivers/STM32F4xx_HAL_Driver/Src/stm32f4xx_hal_i2s_ex.c ****   if ((hi2s->Instance->I2SCFGR & SPI_I2SCFGR_I2SE) != SPI_I2SCFGR_I2SE)
ARM GAS  /tmp/ccQYaWvF.s 			page 13


 658:Drivers/STM32F4xx_HAL_Driver/Src/stm32f4xx_hal_i2s_ex.c ****   {
 659:Drivers/STM32F4xx_HAL_Driver/Src/stm32f4xx_hal_i2s_ex.c ****     /* Enable I2Sext(transmitter) before enabling I2Sx peripheral */
 660:Drivers/STM32F4xx_HAL_Driver/Src/stm32f4xx_hal_i2s_ex.c ****     __HAL_I2SEXT_ENABLE(hi2s);
 661:Drivers/STM32F4xx_HAL_Driver/Src/stm32f4xx_hal_i2s_ex.c ****     /* Enable I2S peripheral before the I2Sext */
 662:Drivers/STM32F4xx_HAL_Driver/Src/stm32f4xx_hal_i2s_ex.c ****     __HAL_I2S_ENABLE(hi2s);
 663:Drivers/STM32F4xx_HAL_Driver/Src/stm32f4xx_hal_i2s_ex.c ****   }
 664:Drivers/STM32F4xx_HAL_Driver/Src/stm32f4xx_hal_i2s_ex.c **** 
 665:Drivers/STM32F4xx_HAL_Driver/Src/stm32f4xx_hal_i2s_ex.c ****   return HAL_OK;
 666:Drivers/STM32F4xx_HAL_Driver/Src/stm32f4xx_hal_i2s_ex.c **** }
 667:Drivers/STM32F4xx_HAL_Driver/Src/stm32f4xx_hal_i2s_ex.c **** 
 668:Drivers/STM32F4xx_HAL_Driver/Src/stm32f4xx_hal_i2s_ex.c **** /**
 669:Drivers/STM32F4xx_HAL_Driver/Src/stm32f4xx_hal_i2s_ex.c ****   * @brief  This function handles I2S/I2Sext interrupt requests in full-duplex mode.
 670:Drivers/STM32F4xx_HAL_Driver/Src/stm32f4xx_hal_i2s_ex.c ****   * @param  hi2s I2S handle
 671:Drivers/STM32F4xx_HAL_Driver/Src/stm32f4xx_hal_i2s_ex.c ****   * @retval HAL status
 672:Drivers/STM32F4xx_HAL_Driver/Src/stm32f4xx_hal_i2s_ex.c ****   */
 673:Drivers/STM32F4xx_HAL_Driver/Src/stm32f4xx_hal_i2s_ex.c **** void HAL_I2SEx_FullDuplex_IRQHandler(I2S_HandleTypeDef *hi2s)
 674:Drivers/STM32F4xx_HAL_Driver/Src/stm32f4xx_hal_i2s_ex.c **** {
 675:Drivers/STM32F4xx_HAL_Driver/Src/stm32f4xx_hal_i2s_ex.c ****   __IO uint32_t i2ssr     = hi2s->Instance->SR;
 676:Drivers/STM32F4xx_HAL_Driver/Src/stm32f4xx_hal_i2s_ex.c ****   __IO uint32_t i2sextsr  = I2SxEXT(hi2s->Instance)->SR;
 677:Drivers/STM32F4xx_HAL_Driver/Src/stm32f4xx_hal_i2s_ex.c ****   __IO uint32_t i2scr2    = hi2s->Instance->CR2;
 678:Drivers/STM32F4xx_HAL_Driver/Src/stm32f4xx_hal_i2s_ex.c ****   __IO uint32_t i2sextcr2 = I2SxEXT(hi2s->Instance)->CR2;
 679:Drivers/STM32F4xx_HAL_Driver/Src/stm32f4xx_hal_i2s_ex.c **** 
 680:Drivers/STM32F4xx_HAL_Driver/Src/stm32f4xx_hal_i2s_ex.c ****   /* Check if the I2S_MODE_MASTER_TX or I2S_MODE_SLAVE_TX Mode is selected */
 681:Drivers/STM32F4xx_HAL_Driver/Src/stm32f4xx_hal_i2s_ex.c ****   if ((hi2s->Init.Mode == I2S_MODE_MASTER_TX) || (hi2s->Init.Mode == I2S_MODE_SLAVE_TX))
 682:Drivers/STM32F4xx_HAL_Driver/Src/stm32f4xx_hal_i2s_ex.c ****   {
 683:Drivers/STM32F4xx_HAL_Driver/Src/stm32f4xx_hal_i2s_ex.c ****     /* I2S in mode Transmitter -------------------------------------------------*/
 684:Drivers/STM32F4xx_HAL_Driver/Src/stm32f4xx_hal_i2s_ex.c ****     if (((i2ssr & I2S_FLAG_TXE) == I2S_FLAG_TXE) && ((i2scr2 & I2S_IT_TXE) != RESET))
 685:Drivers/STM32F4xx_HAL_Driver/Src/stm32f4xx_hal_i2s_ex.c ****     {
 686:Drivers/STM32F4xx_HAL_Driver/Src/stm32f4xx_hal_i2s_ex.c ****       /* When the I2S mode is configured as I2S_MODE_MASTER_TX or I2S_MODE_SLAVE_TX,
 687:Drivers/STM32F4xx_HAL_Driver/Src/stm32f4xx_hal_i2s_ex.c ****       the I2S TXE interrupt will be generated to manage the full-duplex transmit phase. */
 688:Drivers/STM32F4xx_HAL_Driver/Src/stm32f4xx_hal_i2s_ex.c ****       I2SEx_TxISR_I2S(hi2s);
 689:Drivers/STM32F4xx_HAL_Driver/Src/stm32f4xx_hal_i2s_ex.c ****     }
 690:Drivers/STM32F4xx_HAL_Driver/Src/stm32f4xx_hal_i2s_ex.c **** 
 691:Drivers/STM32F4xx_HAL_Driver/Src/stm32f4xx_hal_i2s_ex.c ****     /* I2Sext in mode Receiver -----------------------------------------------*/
 692:Drivers/STM32F4xx_HAL_Driver/Src/stm32f4xx_hal_i2s_ex.c ****     if (((i2sextsr & I2S_FLAG_RXNE) == I2S_FLAG_RXNE) && ((i2sextcr2 & I2S_IT_RXNE) != RESET))
 693:Drivers/STM32F4xx_HAL_Driver/Src/stm32f4xx_hal_i2s_ex.c ****     {
 694:Drivers/STM32F4xx_HAL_Driver/Src/stm32f4xx_hal_i2s_ex.c ****       /* When the I2S mode is configured as I2S_MODE_MASTER_TX or I2S_MODE_SLAVE_TX,
 695:Drivers/STM32F4xx_HAL_Driver/Src/stm32f4xx_hal_i2s_ex.c ****       the I2Sext RXNE interrupt will be generated to manage the full-duplex receive phase. */
 696:Drivers/STM32F4xx_HAL_Driver/Src/stm32f4xx_hal_i2s_ex.c ****       I2SEx_RxISR_I2SExt(hi2s);
 697:Drivers/STM32F4xx_HAL_Driver/Src/stm32f4xx_hal_i2s_ex.c ****     }
 698:Drivers/STM32F4xx_HAL_Driver/Src/stm32f4xx_hal_i2s_ex.c **** 
 699:Drivers/STM32F4xx_HAL_Driver/Src/stm32f4xx_hal_i2s_ex.c ****     /* I2Sext Overrun error interrupt occurred --------------------------------*/
 700:Drivers/STM32F4xx_HAL_Driver/Src/stm32f4xx_hal_i2s_ex.c ****     if (((i2sextsr & I2S_FLAG_OVR) == I2S_FLAG_OVR) && ((i2sextcr2 & I2S_IT_ERR) != RESET))
 701:Drivers/STM32F4xx_HAL_Driver/Src/stm32f4xx_hal_i2s_ex.c ****     {
 702:Drivers/STM32F4xx_HAL_Driver/Src/stm32f4xx_hal_i2s_ex.c ****       /* Disable RXNE and ERR interrupt */
 703:Drivers/STM32F4xx_HAL_Driver/Src/stm32f4xx_hal_i2s_ex.c ****       __HAL_I2SEXT_DISABLE_IT(hi2s, (I2S_IT_RXNE | I2S_IT_ERR));
 704:Drivers/STM32F4xx_HAL_Driver/Src/stm32f4xx_hal_i2s_ex.c **** 
 705:Drivers/STM32F4xx_HAL_Driver/Src/stm32f4xx_hal_i2s_ex.c ****       /* Disable TXE and ERR interrupt */
 706:Drivers/STM32F4xx_HAL_Driver/Src/stm32f4xx_hal_i2s_ex.c ****       __HAL_I2S_DISABLE_IT(hi2s, (I2S_IT_TXE | I2S_IT_ERR));
 707:Drivers/STM32F4xx_HAL_Driver/Src/stm32f4xx_hal_i2s_ex.c **** 
 708:Drivers/STM32F4xx_HAL_Driver/Src/stm32f4xx_hal_i2s_ex.c ****       /* Clear Overrun flag */
 709:Drivers/STM32F4xx_HAL_Driver/Src/stm32f4xx_hal_i2s_ex.c ****       __HAL_I2S_CLEAR_OVRFLAG(hi2s);
 710:Drivers/STM32F4xx_HAL_Driver/Src/stm32f4xx_hal_i2s_ex.c **** 
 711:Drivers/STM32F4xx_HAL_Driver/Src/stm32f4xx_hal_i2s_ex.c ****       /* Set the I2S State ready */
 712:Drivers/STM32F4xx_HAL_Driver/Src/stm32f4xx_hal_i2s_ex.c ****       hi2s->State = HAL_I2S_STATE_READY;
 713:Drivers/STM32F4xx_HAL_Driver/Src/stm32f4xx_hal_i2s_ex.c **** 
 714:Drivers/STM32F4xx_HAL_Driver/Src/stm32f4xx_hal_i2s_ex.c ****       /* Set the error code and execute error callback*/
ARM GAS  /tmp/ccQYaWvF.s 			page 14


 715:Drivers/STM32F4xx_HAL_Driver/Src/stm32f4xx_hal_i2s_ex.c ****       SET_BIT(hi2s->ErrorCode, HAL_I2S_ERROR_OVR);
 716:Drivers/STM32F4xx_HAL_Driver/Src/stm32f4xx_hal_i2s_ex.c ****       /* Call user error callback */
 717:Drivers/STM32F4xx_HAL_Driver/Src/stm32f4xx_hal_i2s_ex.c **** #if (USE_HAL_I2S_REGISTER_CALLBACKS == 1U)
 718:Drivers/STM32F4xx_HAL_Driver/Src/stm32f4xx_hal_i2s_ex.c ****       hi2s->ErrorCallback(hi2s);
 719:Drivers/STM32F4xx_HAL_Driver/Src/stm32f4xx_hal_i2s_ex.c **** #else
 720:Drivers/STM32F4xx_HAL_Driver/Src/stm32f4xx_hal_i2s_ex.c ****       HAL_I2S_ErrorCallback(hi2s);
 721:Drivers/STM32F4xx_HAL_Driver/Src/stm32f4xx_hal_i2s_ex.c **** #endif /* USE_HAL_I2S_REGISTER_CALLBACKS */
 722:Drivers/STM32F4xx_HAL_Driver/Src/stm32f4xx_hal_i2s_ex.c ****     }
 723:Drivers/STM32F4xx_HAL_Driver/Src/stm32f4xx_hal_i2s_ex.c **** 
 724:Drivers/STM32F4xx_HAL_Driver/Src/stm32f4xx_hal_i2s_ex.c ****     /* I2S Underrun error interrupt occurred ----------------------------------*/
 725:Drivers/STM32F4xx_HAL_Driver/Src/stm32f4xx_hal_i2s_ex.c ****     if (((i2ssr & I2S_FLAG_UDR) == I2S_FLAG_UDR) && ((i2scr2 & I2S_IT_ERR) != RESET))
 726:Drivers/STM32F4xx_HAL_Driver/Src/stm32f4xx_hal_i2s_ex.c ****     {
 727:Drivers/STM32F4xx_HAL_Driver/Src/stm32f4xx_hal_i2s_ex.c ****       /* Disable TXE and ERR interrupt */
 728:Drivers/STM32F4xx_HAL_Driver/Src/stm32f4xx_hal_i2s_ex.c ****       __HAL_I2S_DISABLE_IT(hi2s, (I2S_IT_TXE | I2S_IT_ERR));
 729:Drivers/STM32F4xx_HAL_Driver/Src/stm32f4xx_hal_i2s_ex.c **** 
 730:Drivers/STM32F4xx_HAL_Driver/Src/stm32f4xx_hal_i2s_ex.c ****       /* Disable RXNE and ERR interrupt */
 731:Drivers/STM32F4xx_HAL_Driver/Src/stm32f4xx_hal_i2s_ex.c ****       __HAL_I2SEXT_DISABLE_IT(hi2s, (I2S_IT_RXNE | I2S_IT_ERR));
 732:Drivers/STM32F4xx_HAL_Driver/Src/stm32f4xx_hal_i2s_ex.c **** 
 733:Drivers/STM32F4xx_HAL_Driver/Src/stm32f4xx_hal_i2s_ex.c ****       /* Clear underrun flag */
 734:Drivers/STM32F4xx_HAL_Driver/Src/stm32f4xx_hal_i2s_ex.c ****       __HAL_I2S_CLEAR_UDRFLAG(hi2s);
 735:Drivers/STM32F4xx_HAL_Driver/Src/stm32f4xx_hal_i2s_ex.c **** 
 736:Drivers/STM32F4xx_HAL_Driver/Src/stm32f4xx_hal_i2s_ex.c ****       /* Set the I2S State ready */
 737:Drivers/STM32F4xx_HAL_Driver/Src/stm32f4xx_hal_i2s_ex.c ****       hi2s->State = HAL_I2S_STATE_READY;
 738:Drivers/STM32F4xx_HAL_Driver/Src/stm32f4xx_hal_i2s_ex.c **** 
 739:Drivers/STM32F4xx_HAL_Driver/Src/stm32f4xx_hal_i2s_ex.c ****       /* Set the error code and execute error callback*/
 740:Drivers/STM32F4xx_HAL_Driver/Src/stm32f4xx_hal_i2s_ex.c ****       SET_BIT(hi2s->ErrorCode, HAL_I2S_ERROR_UDR);
 741:Drivers/STM32F4xx_HAL_Driver/Src/stm32f4xx_hal_i2s_ex.c ****       /* Call user error callback */
 742:Drivers/STM32F4xx_HAL_Driver/Src/stm32f4xx_hal_i2s_ex.c **** #if (USE_HAL_I2S_REGISTER_CALLBACKS == 1U)
 743:Drivers/STM32F4xx_HAL_Driver/Src/stm32f4xx_hal_i2s_ex.c ****       hi2s->ErrorCallback(hi2s);
 744:Drivers/STM32F4xx_HAL_Driver/Src/stm32f4xx_hal_i2s_ex.c **** #else
 745:Drivers/STM32F4xx_HAL_Driver/Src/stm32f4xx_hal_i2s_ex.c ****       HAL_I2S_ErrorCallback(hi2s);
 746:Drivers/STM32F4xx_HAL_Driver/Src/stm32f4xx_hal_i2s_ex.c **** #endif /* USE_HAL_I2S_REGISTER_CALLBACKS */
 747:Drivers/STM32F4xx_HAL_Driver/Src/stm32f4xx_hal_i2s_ex.c ****     }
 748:Drivers/STM32F4xx_HAL_Driver/Src/stm32f4xx_hal_i2s_ex.c ****   }
 749:Drivers/STM32F4xx_HAL_Driver/Src/stm32f4xx_hal_i2s_ex.c ****   /* The I2S_MODE_MASTER_RX or I2S_MODE_SLAVE_RX Mode is selected */
 750:Drivers/STM32F4xx_HAL_Driver/Src/stm32f4xx_hal_i2s_ex.c ****   else
 751:Drivers/STM32F4xx_HAL_Driver/Src/stm32f4xx_hal_i2s_ex.c ****   {
 752:Drivers/STM32F4xx_HAL_Driver/Src/stm32f4xx_hal_i2s_ex.c ****     /* I2Sext in mode Transmitter ----------------------------------------------*/
 753:Drivers/STM32F4xx_HAL_Driver/Src/stm32f4xx_hal_i2s_ex.c ****     if (((i2sextsr & I2S_FLAG_TXE) == I2S_FLAG_TXE) && ((i2sextcr2 & I2S_IT_TXE) != RESET))
 754:Drivers/STM32F4xx_HAL_Driver/Src/stm32f4xx_hal_i2s_ex.c ****     {
 755:Drivers/STM32F4xx_HAL_Driver/Src/stm32f4xx_hal_i2s_ex.c ****       /* When the I2S mode is configured as I2S_MODE_MASTER_RX or I2S_MODE_SLAVE_RX,
 756:Drivers/STM32F4xx_HAL_Driver/Src/stm32f4xx_hal_i2s_ex.c ****       the I2Sext TXE interrupt will be generated to manage the full-duplex transmit phase. */
 757:Drivers/STM32F4xx_HAL_Driver/Src/stm32f4xx_hal_i2s_ex.c ****       I2SEx_TxISR_I2SExt(hi2s);
 758:Drivers/STM32F4xx_HAL_Driver/Src/stm32f4xx_hal_i2s_ex.c ****     }
 759:Drivers/STM32F4xx_HAL_Driver/Src/stm32f4xx_hal_i2s_ex.c **** 
 760:Drivers/STM32F4xx_HAL_Driver/Src/stm32f4xx_hal_i2s_ex.c ****     /* I2S in mode Receiver --------------------------------------------------*/
 761:Drivers/STM32F4xx_HAL_Driver/Src/stm32f4xx_hal_i2s_ex.c ****     if (((i2ssr & I2S_FLAG_RXNE) == I2S_FLAG_RXNE) && ((i2scr2 & I2S_IT_RXNE) != RESET))
 762:Drivers/STM32F4xx_HAL_Driver/Src/stm32f4xx_hal_i2s_ex.c ****     {
 763:Drivers/STM32F4xx_HAL_Driver/Src/stm32f4xx_hal_i2s_ex.c ****       /* When the I2S mode is configured as I2S_MODE_MASTER_RX or I2S_MODE_SLAVE_RX,
 764:Drivers/STM32F4xx_HAL_Driver/Src/stm32f4xx_hal_i2s_ex.c ****       the I2S RXNE interrupt will be generated to manage the full-duplex receive phase. */
 765:Drivers/STM32F4xx_HAL_Driver/Src/stm32f4xx_hal_i2s_ex.c ****       I2SEx_RxISR_I2S(hi2s);
 766:Drivers/STM32F4xx_HAL_Driver/Src/stm32f4xx_hal_i2s_ex.c ****     }
 767:Drivers/STM32F4xx_HAL_Driver/Src/stm32f4xx_hal_i2s_ex.c **** 
 768:Drivers/STM32F4xx_HAL_Driver/Src/stm32f4xx_hal_i2s_ex.c ****     /* I2S Overrun error interrupt occurred -------------------------------------*/
 769:Drivers/STM32F4xx_HAL_Driver/Src/stm32f4xx_hal_i2s_ex.c ****     if (((i2ssr & I2S_FLAG_OVR) == I2S_FLAG_OVR) && ((i2scr2 & I2S_IT_ERR) != RESET))
 770:Drivers/STM32F4xx_HAL_Driver/Src/stm32f4xx_hal_i2s_ex.c ****     {
 771:Drivers/STM32F4xx_HAL_Driver/Src/stm32f4xx_hal_i2s_ex.c ****       /* Disable RXNE and ERR interrupt */
ARM GAS  /tmp/ccQYaWvF.s 			page 15


 772:Drivers/STM32F4xx_HAL_Driver/Src/stm32f4xx_hal_i2s_ex.c ****       __HAL_I2S_DISABLE_IT(hi2s, (I2S_IT_RXNE | I2S_IT_ERR));
 773:Drivers/STM32F4xx_HAL_Driver/Src/stm32f4xx_hal_i2s_ex.c **** 
 774:Drivers/STM32F4xx_HAL_Driver/Src/stm32f4xx_hal_i2s_ex.c ****       /* Disable TXE and ERR interrupt */
 775:Drivers/STM32F4xx_HAL_Driver/Src/stm32f4xx_hal_i2s_ex.c ****       __HAL_I2SEXT_DISABLE_IT(hi2s, (I2S_IT_TXE | I2S_IT_ERR));
 776:Drivers/STM32F4xx_HAL_Driver/Src/stm32f4xx_hal_i2s_ex.c **** 
 777:Drivers/STM32F4xx_HAL_Driver/Src/stm32f4xx_hal_i2s_ex.c ****       /* Set the I2S State ready */
 778:Drivers/STM32F4xx_HAL_Driver/Src/stm32f4xx_hal_i2s_ex.c ****       hi2s->State = HAL_I2S_STATE_READY;
 779:Drivers/STM32F4xx_HAL_Driver/Src/stm32f4xx_hal_i2s_ex.c **** 
 780:Drivers/STM32F4xx_HAL_Driver/Src/stm32f4xx_hal_i2s_ex.c ****       /* Set the error code and execute error callback*/
 781:Drivers/STM32F4xx_HAL_Driver/Src/stm32f4xx_hal_i2s_ex.c ****       SET_BIT(hi2s->ErrorCode, HAL_I2S_ERROR_OVR);
 782:Drivers/STM32F4xx_HAL_Driver/Src/stm32f4xx_hal_i2s_ex.c ****       /* Call user error callback */
 783:Drivers/STM32F4xx_HAL_Driver/Src/stm32f4xx_hal_i2s_ex.c **** #if (USE_HAL_I2S_REGISTER_CALLBACKS == 1U)
 784:Drivers/STM32F4xx_HAL_Driver/Src/stm32f4xx_hal_i2s_ex.c ****       hi2s->ErrorCallback(hi2s);
 785:Drivers/STM32F4xx_HAL_Driver/Src/stm32f4xx_hal_i2s_ex.c **** #else
 786:Drivers/STM32F4xx_HAL_Driver/Src/stm32f4xx_hal_i2s_ex.c ****       HAL_I2S_ErrorCallback(hi2s);
 787:Drivers/STM32F4xx_HAL_Driver/Src/stm32f4xx_hal_i2s_ex.c **** #endif /* USE_HAL_I2S_REGISTER_CALLBACKS */
 788:Drivers/STM32F4xx_HAL_Driver/Src/stm32f4xx_hal_i2s_ex.c ****     }
 789:Drivers/STM32F4xx_HAL_Driver/Src/stm32f4xx_hal_i2s_ex.c **** 
 790:Drivers/STM32F4xx_HAL_Driver/Src/stm32f4xx_hal_i2s_ex.c ****     /* I2Sext Underrun error interrupt occurred -------------------------------*/
 791:Drivers/STM32F4xx_HAL_Driver/Src/stm32f4xx_hal_i2s_ex.c ****     if (((i2sextsr & I2S_FLAG_UDR) == I2S_FLAG_UDR) && ((i2sextcr2 & I2S_IT_ERR) != RESET))
 792:Drivers/STM32F4xx_HAL_Driver/Src/stm32f4xx_hal_i2s_ex.c ****     {
 793:Drivers/STM32F4xx_HAL_Driver/Src/stm32f4xx_hal_i2s_ex.c ****       /* Disable TXE and ERR interrupt */
 794:Drivers/STM32F4xx_HAL_Driver/Src/stm32f4xx_hal_i2s_ex.c ****       __HAL_I2SEXT_DISABLE_IT(hi2s, (I2S_IT_TXE | I2S_IT_ERR));
 795:Drivers/STM32F4xx_HAL_Driver/Src/stm32f4xx_hal_i2s_ex.c **** 
 796:Drivers/STM32F4xx_HAL_Driver/Src/stm32f4xx_hal_i2s_ex.c ****       /* Disable RXNE and ERR interrupt */
 797:Drivers/STM32F4xx_HAL_Driver/Src/stm32f4xx_hal_i2s_ex.c ****       __HAL_I2S_DISABLE_IT(hi2s, (I2S_IT_RXNE | I2S_IT_ERR));
 798:Drivers/STM32F4xx_HAL_Driver/Src/stm32f4xx_hal_i2s_ex.c **** 
 799:Drivers/STM32F4xx_HAL_Driver/Src/stm32f4xx_hal_i2s_ex.c ****       /* Set the I2S State ready */
 800:Drivers/STM32F4xx_HAL_Driver/Src/stm32f4xx_hal_i2s_ex.c ****       hi2s->State = HAL_I2S_STATE_READY;
 801:Drivers/STM32F4xx_HAL_Driver/Src/stm32f4xx_hal_i2s_ex.c **** 
 802:Drivers/STM32F4xx_HAL_Driver/Src/stm32f4xx_hal_i2s_ex.c ****       /* Set the error code and execute error callback*/
 803:Drivers/STM32F4xx_HAL_Driver/Src/stm32f4xx_hal_i2s_ex.c ****       SET_BIT(hi2s->ErrorCode, HAL_I2S_ERROR_UDR);
 804:Drivers/STM32F4xx_HAL_Driver/Src/stm32f4xx_hal_i2s_ex.c ****       /* Call user error callback */
 805:Drivers/STM32F4xx_HAL_Driver/Src/stm32f4xx_hal_i2s_ex.c **** #if (USE_HAL_I2S_REGISTER_CALLBACKS == 1U)
 806:Drivers/STM32F4xx_HAL_Driver/Src/stm32f4xx_hal_i2s_ex.c ****       hi2s->ErrorCallback(hi2s);
 807:Drivers/STM32F4xx_HAL_Driver/Src/stm32f4xx_hal_i2s_ex.c **** #else
 808:Drivers/STM32F4xx_HAL_Driver/Src/stm32f4xx_hal_i2s_ex.c ****       HAL_I2S_ErrorCallback(hi2s);
 809:Drivers/STM32F4xx_HAL_Driver/Src/stm32f4xx_hal_i2s_ex.c **** #endif /* USE_HAL_I2S_REGISTER_CALLBACKS */
 810:Drivers/STM32F4xx_HAL_Driver/Src/stm32f4xx_hal_i2s_ex.c ****     }
 811:Drivers/STM32F4xx_HAL_Driver/Src/stm32f4xx_hal_i2s_ex.c ****   }
 812:Drivers/STM32F4xx_HAL_Driver/Src/stm32f4xx_hal_i2s_ex.c **** }
 813:Drivers/STM32F4xx_HAL_Driver/Src/stm32f4xx_hal_i2s_ex.c **** 
 814:Drivers/STM32F4xx_HAL_Driver/Src/stm32f4xx_hal_i2s_ex.c **** /**
 815:Drivers/STM32F4xx_HAL_Driver/Src/stm32f4xx_hal_i2s_ex.c ****   * @brief  Tx and Rx Transfer half completed callback
 816:Drivers/STM32F4xx_HAL_Driver/Src/stm32f4xx_hal_i2s_ex.c ****   * @param  hi2s I2S handle
 817:Drivers/STM32F4xx_HAL_Driver/Src/stm32f4xx_hal_i2s_ex.c ****   * @retval None
 818:Drivers/STM32F4xx_HAL_Driver/Src/stm32f4xx_hal_i2s_ex.c ****   */
 819:Drivers/STM32F4xx_HAL_Driver/Src/stm32f4xx_hal_i2s_ex.c **** __weak void HAL_I2SEx_TxRxHalfCpltCallback(I2S_HandleTypeDef *hi2s)
 820:Drivers/STM32F4xx_HAL_Driver/Src/stm32f4xx_hal_i2s_ex.c **** {
 821:Drivers/STM32F4xx_HAL_Driver/Src/stm32f4xx_hal_i2s_ex.c ****   /* Prevent unused argument(s) compilation warning */
 822:Drivers/STM32F4xx_HAL_Driver/Src/stm32f4xx_hal_i2s_ex.c ****   UNUSED(hi2s);
 823:Drivers/STM32F4xx_HAL_Driver/Src/stm32f4xx_hal_i2s_ex.c **** 
 824:Drivers/STM32F4xx_HAL_Driver/Src/stm32f4xx_hal_i2s_ex.c ****   /* NOTE : This function Should not be modified, when the callback is needed,
 825:Drivers/STM32F4xx_HAL_Driver/Src/stm32f4xx_hal_i2s_ex.c ****             the HAL_I2SEx_TxRxHalfCpltCallback could be implemented in the user file
 826:Drivers/STM32F4xx_HAL_Driver/Src/stm32f4xx_hal_i2s_ex.c ****    */
 827:Drivers/STM32F4xx_HAL_Driver/Src/stm32f4xx_hal_i2s_ex.c **** }
 828:Drivers/STM32F4xx_HAL_Driver/Src/stm32f4xx_hal_i2s_ex.c **** 
ARM GAS  /tmp/ccQYaWvF.s 			page 16


 829:Drivers/STM32F4xx_HAL_Driver/Src/stm32f4xx_hal_i2s_ex.c **** /**
 830:Drivers/STM32F4xx_HAL_Driver/Src/stm32f4xx_hal_i2s_ex.c ****   * @brief  Tx and Rx Transfer completed callback
 831:Drivers/STM32F4xx_HAL_Driver/Src/stm32f4xx_hal_i2s_ex.c ****   * @param  hi2s I2S handle
 832:Drivers/STM32F4xx_HAL_Driver/Src/stm32f4xx_hal_i2s_ex.c ****   * @retval None
 833:Drivers/STM32F4xx_HAL_Driver/Src/stm32f4xx_hal_i2s_ex.c ****   */
 834:Drivers/STM32F4xx_HAL_Driver/Src/stm32f4xx_hal_i2s_ex.c **** __weak void HAL_I2SEx_TxRxCpltCallback(I2S_HandleTypeDef *hi2s)
 835:Drivers/STM32F4xx_HAL_Driver/Src/stm32f4xx_hal_i2s_ex.c **** {
 836:Drivers/STM32F4xx_HAL_Driver/Src/stm32f4xx_hal_i2s_ex.c ****   /* Prevent unused argument(s) compilation warning */
 837:Drivers/STM32F4xx_HAL_Driver/Src/stm32f4xx_hal_i2s_ex.c ****   UNUSED(hi2s);
 838:Drivers/STM32F4xx_HAL_Driver/Src/stm32f4xx_hal_i2s_ex.c **** 
 839:Drivers/STM32F4xx_HAL_Driver/Src/stm32f4xx_hal_i2s_ex.c ****   /* NOTE : This function should not be modified, when the callback is needed,
 840:Drivers/STM32F4xx_HAL_Driver/Src/stm32f4xx_hal_i2s_ex.c ****             the HAL_I2SEx_TxRxCpltCallback could be implemented in the user file
 841:Drivers/STM32F4xx_HAL_Driver/Src/stm32f4xx_hal_i2s_ex.c ****    */
 842:Drivers/STM32F4xx_HAL_Driver/Src/stm32f4xx_hal_i2s_ex.c **** }
 843:Drivers/STM32F4xx_HAL_Driver/Src/stm32f4xx_hal_i2s_ex.c **** 
 844:Drivers/STM32F4xx_HAL_Driver/Src/stm32f4xx_hal_i2s_ex.c **** /**
 845:Drivers/STM32F4xx_HAL_Driver/Src/stm32f4xx_hal_i2s_ex.c ****   * @}
 846:Drivers/STM32F4xx_HAL_Driver/Src/stm32f4xx_hal_i2s_ex.c ****   */
 847:Drivers/STM32F4xx_HAL_Driver/Src/stm32f4xx_hal_i2s_ex.c **** 
 848:Drivers/STM32F4xx_HAL_Driver/Src/stm32f4xx_hal_i2s_ex.c **** /**
 849:Drivers/STM32F4xx_HAL_Driver/Src/stm32f4xx_hal_i2s_ex.c ****   * @}
 850:Drivers/STM32F4xx_HAL_Driver/Src/stm32f4xx_hal_i2s_ex.c ****   */
 851:Drivers/STM32F4xx_HAL_Driver/Src/stm32f4xx_hal_i2s_ex.c **** 
 852:Drivers/STM32F4xx_HAL_Driver/Src/stm32f4xx_hal_i2s_ex.c **** /** @addtogroup I2SEx_Private_Functions I2S Extended Private Functions
 853:Drivers/STM32F4xx_HAL_Driver/Src/stm32f4xx_hal_i2s_ex.c ****   * @{
 854:Drivers/STM32F4xx_HAL_Driver/Src/stm32f4xx_hal_i2s_ex.c ****   */
 855:Drivers/STM32F4xx_HAL_Driver/Src/stm32f4xx_hal_i2s_ex.c **** 
 856:Drivers/STM32F4xx_HAL_Driver/Src/stm32f4xx_hal_i2s_ex.c **** /**
 857:Drivers/STM32F4xx_HAL_Driver/Src/stm32f4xx_hal_i2s_ex.c ****   * @brief  DMA I2S transmit receive process half complete callback
 858:Drivers/STM32F4xx_HAL_Driver/Src/stm32f4xx_hal_i2s_ex.c ****   * @param  hdma pointer to a DMA_HandleTypeDef structure that contains
 859:Drivers/STM32F4xx_HAL_Driver/Src/stm32f4xx_hal_i2s_ex.c ****   *               the configuration information for the specified DMA module.
 860:Drivers/STM32F4xx_HAL_Driver/Src/stm32f4xx_hal_i2s_ex.c ****   * @retval None
 861:Drivers/STM32F4xx_HAL_Driver/Src/stm32f4xx_hal_i2s_ex.c ****   */
 862:Drivers/STM32F4xx_HAL_Driver/Src/stm32f4xx_hal_i2s_ex.c **** static void I2SEx_TxRxDMAHalfCplt(DMA_HandleTypeDef *hdma)
 863:Drivers/STM32F4xx_HAL_Driver/Src/stm32f4xx_hal_i2s_ex.c **** {
 864:Drivers/STM32F4xx_HAL_Driver/Src/stm32f4xx_hal_i2s_ex.c ****   I2S_HandleTypeDef *hi2s = (I2S_HandleTypeDef *)((DMA_HandleTypeDef *)hdma)->Parent;
 865:Drivers/STM32F4xx_HAL_Driver/Src/stm32f4xx_hal_i2s_ex.c **** 
 866:Drivers/STM32F4xx_HAL_Driver/Src/stm32f4xx_hal_i2s_ex.c ****   /* Call user TxRx Half complete callback */
 867:Drivers/STM32F4xx_HAL_Driver/Src/stm32f4xx_hal_i2s_ex.c **** #if (USE_HAL_I2S_REGISTER_CALLBACKS == 1U)
 868:Drivers/STM32F4xx_HAL_Driver/Src/stm32f4xx_hal_i2s_ex.c ****   hi2s->TxRxHalfCpltCallback(hi2s);
 869:Drivers/STM32F4xx_HAL_Driver/Src/stm32f4xx_hal_i2s_ex.c **** #else
 870:Drivers/STM32F4xx_HAL_Driver/Src/stm32f4xx_hal_i2s_ex.c ****   HAL_I2SEx_TxRxHalfCpltCallback(hi2s);
 871:Drivers/STM32F4xx_HAL_Driver/Src/stm32f4xx_hal_i2s_ex.c **** #endif /* USE_HAL_I2S_REGISTER_CALLBACKS */
 872:Drivers/STM32F4xx_HAL_Driver/Src/stm32f4xx_hal_i2s_ex.c **** }
 873:Drivers/STM32F4xx_HAL_Driver/Src/stm32f4xx_hal_i2s_ex.c **** 
 874:Drivers/STM32F4xx_HAL_Driver/Src/stm32f4xx_hal_i2s_ex.c **** /**
 875:Drivers/STM32F4xx_HAL_Driver/Src/stm32f4xx_hal_i2s_ex.c ****   * @brief  DMA I2S transmit receive process complete callback
 876:Drivers/STM32F4xx_HAL_Driver/Src/stm32f4xx_hal_i2s_ex.c ****   * @param  hdma pointer to a DMA_HandleTypeDef structure that contains
 877:Drivers/STM32F4xx_HAL_Driver/Src/stm32f4xx_hal_i2s_ex.c ****   *               the configuration information for the specified DMA module.
 878:Drivers/STM32F4xx_HAL_Driver/Src/stm32f4xx_hal_i2s_ex.c ****   * @retval None
 879:Drivers/STM32F4xx_HAL_Driver/Src/stm32f4xx_hal_i2s_ex.c ****   */
 880:Drivers/STM32F4xx_HAL_Driver/Src/stm32f4xx_hal_i2s_ex.c **** static void I2SEx_TxRxDMACplt(DMA_HandleTypeDef *hdma)
 881:Drivers/STM32F4xx_HAL_Driver/Src/stm32f4xx_hal_i2s_ex.c **** {
 882:Drivers/STM32F4xx_HAL_Driver/Src/stm32f4xx_hal_i2s_ex.c ****   I2S_HandleTypeDef *hi2s = (I2S_HandleTypeDef *)((DMA_HandleTypeDef *)hdma)->Parent;
 883:Drivers/STM32F4xx_HAL_Driver/Src/stm32f4xx_hal_i2s_ex.c **** 
 884:Drivers/STM32F4xx_HAL_Driver/Src/stm32f4xx_hal_i2s_ex.c ****   /* If DMA is configured in DMA_NORMAL mode */
 885:Drivers/STM32F4xx_HAL_Driver/Src/stm32f4xx_hal_i2s_ex.c ****   if (hdma->Init.Mode == DMA_NORMAL)
ARM GAS  /tmp/ccQYaWvF.s 			page 17


 886:Drivers/STM32F4xx_HAL_Driver/Src/stm32f4xx_hal_i2s_ex.c ****   {
 887:Drivers/STM32F4xx_HAL_Driver/Src/stm32f4xx_hal_i2s_ex.c ****     if (((hi2s->Instance->I2SCFGR & SPI_I2SCFGR_I2SCFG) == I2S_MODE_MASTER_TX) || \
 888:Drivers/STM32F4xx_HAL_Driver/Src/stm32f4xx_hal_i2s_ex.c ****         ((hi2s->Instance->I2SCFGR & SPI_I2SCFGR_I2SCFG) == I2S_MODE_SLAVE_TX))
 889:Drivers/STM32F4xx_HAL_Driver/Src/stm32f4xx_hal_i2s_ex.c ****     /* Disable Tx & Rx DMA Requests */
 890:Drivers/STM32F4xx_HAL_Driver/Src/stm32f4xx_hal_i2s_ex.c ****     {
 891:Drivers/STM32F4xx_HAL_Driver/Src/stm32f4xx_hal_i2s_ex.c ****       CLEAR_BIT(I2SxEXT(hi2s->Instance)->CR2, SPI_CR2_RXDMAEN);
 892:Drivers/STM32F4xx_HAL_Driver/Src/stm32f4xx_hal_i2s_ex.c ****       CLEAR_BIT(hi2s->Instance->CR2, SPI_CR2_TXDMAEN);
 893:Drivers/STM32F4xx_HAL_Driver/Src/stm32f4xx_hal_i2s_ex.c ****     }
 894:Drivers/STM32F4xx_HAL_Driver/Src/stm32f4xx_hal_i2s_ex.c ****     else
 895:Drivers/STM32F4xx_HAL_Driver/Src/stm32f4xx_hal_i2s_ex.c ****     {
 896:Drivers/STM32F4xx_HAL_Driver/Src/stm32f4xx_hal_i2s_ex.c ****       CLEAR_BIT(hi2s->Instance->CR2, SPI_CR2_RXDMAEN);
 897:Drivers/STM32F4xx_HAL_Driver/Src/stm32f4xx_hal_i2s_ex.c ****       CLEAR_BIT(I2SxEXT(hi2s->Instance)->CR2, SPI_CR2_TXDMAEN);
 898:Drivers/STM32F4xx_HAL_Driver/Src/stm32f4xx_hal_i2s_ex.c ****     }
 899:Drivers/STM32F4xx_HAL_Driver/Src/stm32f4xx_hal_i2s_ex.c **** 
 900:Drivers/STM32F4xx_HAL_Driver/Src/stm32f4xx_hal_i2s_ex.c ****     hi2s->RxXferCount = 0U;
 901:Drivers/STM32F4xx_HAL_Driver/Src/stm32f4xx_hal_i2s_ex.c ****     hi2s->TxXferCount = 0U;
 902:Drivers/STM32F4xx_HAL_Driver/Src/stm32f4xx_hal_i2s_ex.c **** 
 903:Drivers/STM32F4xx_HAL_Driver/Src/stm32f4xx_hal_i2s_ex.c ****     hi2s->State = HAL_I2S_STATE_READY;
 904:Drivers/STM32F4xx_HAL_Driver/Src/stm32f4xx_hal_i2s_ex.c ****   }
 905:Drivers/STM32F4xx_HAL_Driver/Src/stm32f4xx_hal_i2s_ex.c **** 
 906:Drivers/STM32F4xx_HAL_Driver/Src/stm32f4xx_hal_i2s_ex.c ****   /* Call user TxRx complete callback */
 907:Drivers/STM32F4xx_HAL_Driver/Src/stm32f4xx_hal_i2s_ex.c **** #if (USE_HAL_I2S_REGISTER_CALLBACKS == 1U)
 908:Drivers/STM32F4xx_HAL_Driver/Src/stm32f4xx_hal_i2s_ex.c ****   hi2s->TxRxCpltCallback(hi2s);
 909:Drivers/STM32F4xx_HAL_Driver/Src/stm32f4xx_hal_i2s_ex.c **** #else
 910:Drivers/STM32F4xx_HAL_Driver/Src/stm32f4xx_hal_i2s_ex.c ****   HAL_I2SEx_TxRxCpltCallback(hi2s);
 911:Drivers/STM32F4xx_HAL_Driver/Src/stm32f4xx_hal_i2s_ex.c **** #endif /* USE_HAL_I2S_REGISTER_CALLBACKS */
 912:Drivers/STM32F4xx_HAL_Driver/Src/stm32f4xx_hal_i2s_ex.c **** }
 913:Drivers/STM32F4xx_HAL_Driver/Src/stm32f4xx_hal_i2s_ex.c **** 
 914:Drivers/STM32F4xx_HAL_Driver/Src/stm32f4xx_hal_i2s_ex.c **** /**
 915:Drivers/STM32F4xx_HAL_Driver/Src/stm32f4xx_hal_i2s_ex.c ****   * @brief  DMA I2S communication error callback
 916:Drivers/STM32F4xx_HAL_Driver/Src/stm32f4xx_hal_i2s_ex.c ****   * @param  hdma DMA handle
 917:Drivers/STM32F4xx_HAL_Driver/Src/stm32f4xx_hal_i2s_ex.c ****   * @retval None
 918:Drivers/STM32F4xx_HAL_Driver/Src/stm32f4xx_hal_i2s_ex.c ****   */
 919:Drivers/STM32F4xx_HAL_Driver/Src/stm32f4xx_hal_i2s_ex.c **** static void I2SEx_TxRxDMAError(DMA_HandleTypeDef *hdma)
 920:Drivers/STM32F4xx_HAL_Driver/Src/stm32f4xx_hal_i2s_ex.c **** {
 921:Drivers/STM32F4xx_HAL_Driver/Src/stm32f4xx_hal_i2s_ex.c ****   I2S_HandleTypeDef *hi2s = (I2S_HandleTypeDef *)((DMA_HandleTypeDef *)hdma)->Parent;
 922:Drivers/STM32F4xx_HAL_Driver/Src/stm32f4xx_hal_i2s_ex.c **** 
 923:Drivers/STM32F4xx_HAL_Driver/Src/stm32f4xx_hal_i2s_ex.c ****   /* Disable Rx and Tx DMA Request */
 924:Drivers/STM32F4xx_HAL_Driver/Src/stm32f4xx_hal_i2s_ex.c ****   CLEAR_BIT(hi2s->Instance->CR2, (SPI_CR2_RXDMAEN | SPI_CR2_TXDMAEN));
 925:Drivers/STM32F4xx_HAL_Driver/Src/stm32f4xx_hal_i2s_ex.c ****   CLEAR_BIT(I2SxEXT(hi2s->Instance)->CR2, (SPI_CR2_RXDMAEN | SPI_CR2_TXDMAEN));
 926:Drivers/STM32F4xx_HAL_Driver/Src/stm32f4xx_hal_i2s_ex.c **** 
 927:Drivers/STM32F4xx_HAL_Driver/Src/stm32f4xx_hal_i2s_ex.c ****   hi2s->TxXferCount = 0U;
 928:Drivers/STM32F4xx_HAL_Driver/Src/stm32f4xx_hal_i2s_ex.c ****   hi2s->RxXferCount = 0U;
 929:Drivers/STM32F4xx_HAL_Driver/Src/stm32f4xx_hal_i2s_ex.c **** 
 930:Drivers/STM32F4xx_HAL_Driver/Src/stm32f4xx_hal_i2s_ex.c ****   hi2s->State = HAL_I2S_STATE_READY;
 931:Drivers/STM32F4xx_HAL_Driver/Src/stm32f4xx_hal_i2s_ex.c **** 
 932:Drivers/STM32F4xx_HAL_Driver/Src/stm32f4xx_hal_i2s_ex.c ****   /* Set the error code and execute error callback*/
 933:Drivers/STM32F4xx_HAL_Driver/Src/stm32f4xx_hal_i2s_ex.c ****   SET_BIT(hi2s->ErrorCode, HAL_I2S_ERROR_DMA);
 934:Drivers/STM32F4xx_HAL_Driver/Src/stm32f4xx_hal_i2s_ex.c ****   /* Call user error callback */
 935:Drivers/STM32F4xx_HAL_Driver/Src/stm32f4xx_hal_i2s_ex.c **** #if (USE_HAL_I2S_REGISTER_CALLBACKS == 1U)
 936:Drivers/STM32F4xx_HAL_Driver/Src/stm32f4xx_hal_i2s_ex.c ****   hi2s->ErrorCallback(hi2s);
 937:Drivers/STM32F4xx_HAL_Driver/Src/stm32f4xx_hal_i2s_ex.c **** #else
 938:Drivers/STM32F4xx_HAL_Driver/Src/stm32f4xx_hal_i2s_ex.c ****   HAL_I2S_ErrorCallback(hi2s);
 939:Drivers/STM32F4xx_HAL_Driver/Src/stm32f4xx_hal_i2s_ex.c **** #endif /* USE_HAL_I2S_REGISTER_CALLBACKS */
 940:Drivers/STM32F4xx_HAL_Driver/Src/stm32f4xx_hal_i2s_ex.c **** }
 941:Drivers/STM32F4xx_HAL_Driver/Src/stm32f4xx_hal_i2s_ex.c **** 
 942:Drivers/STM32F4xx_HAL_Driver/Src/stm32f4xx_hal_i2s_ex.c **** /**
ARM GAS  /tmp/ccQYaWvF.s 			page 18


 943:Drivers/STM32F4xx_HAL_Driver/Src/stm32f4xx_hal_i2s_ex.c ****   * @brief  I2S Full-Duplex IT handler transmit function
 944:Drivers/STM32F4xx_HAL_Driver/Src/stm32f4xx_hal_i2s_ex.c ****   * @param  hi2s I2S handle
 945:Drivers/STM32F4xx_HAL_Driver/Src/stm32f4xx_hal_i2s_ex.c ****   * @retval None
 946:Drivers/STM32F4xx_HAL_Driver/Src/stm32f4xx_hal_i2s_ex.c ****   */
 947:Drivers/STM32F4xx_HAL_Driver/Src/stm32f4xx_hal_i2s_ex.c **** static void I2SEx_TxISR_I2S(I2S_HandleTypeDef *hi2s)
 948:Drivers/STM32F4xx_HAL_Driver/Src/stm32f4xx_hal_i2s_ex.c **** {
 949:Drivers/STM32F4xx_HAL_Driver/Src/stm32f4xx_hal_i2s_ex.c ****   /* Write Data on DR register */
 950:Drivers/STM32F4xx_HAL_Driver/Src/stm32f4xx_hal_i2s_ex.c ****   hi2s->Instance->DR = (*hi2s->pTxBuffPtr++);
 951:Drivers/STM32F4xx_HAL_Driver/Src/stm32f4xx_hal_i2s_ex.c ****   hi2s->TxXferCount--;
 952:Drivers/STM32F4xx_HAL_Driver/Src/stm32f4xx_hal_i2s_ex.c **** 
 953:Drivers/STM32F4xx_HAL_Driver/Src/stm32f4xx_hal_i2s_ex.c ****   if (hi2s->TxXferCount == 0U)
 954:Drivers/STM32F4xx_HAL_Driver/Src/stm32f4xx_hal_i2s_ex.c ****   {
 955:Drivers/STM32F4xx_HAL_Driver/Src/stm32f4xx_hal_i2s_ex.c ****     /* Disable TXE and ERR interrupt */
 956:Drivers/STM32F4xx_HAL_Driver/Src/stm32f4xx_hal_i2s_ex.c ****     __HAL_I2S_DISABLE_IT(hi2s, (I2S_IT_TXE | I2S_IT_ERR));
 957:Drivers/STM32F4xx_HAL_Driver/Src/stm32f4xx_hal_i2s_ex.c **** 
 958:Drivers/STM32F4xx_HAL_Driver/Src/stm32f4xx_hal_i2s_ex.c ****     if (hi2s->RxXferCount == 0U)
 959:Drivers/STM32F4xx_HAL_Driver/Src/stm32f4xx_hal_i2s_ex.c ****     {
 960:Drivers/STM32F4xx_HAL_Driver/Src/stm32f4xx_hal_i2s_ex.c ****       hi2s->State = HAL_I2S_STATE_READY;
 961:Drivers/STM32F4xx_HAL_Driver/Src/stm32f4xx_hal_i2s_ex.c ****       /* Call user TxRx complete callback */
 962:Drivers/STM32F4xx_HAL_Driver/Src/stm32f4xx_hal_i2s_ex.c **** #if (USE_HAL_I2S_REGISTER_CALLBACKS == 1U)
 963:Drivers/STM32F4xx_HAL_Driver/Src/stm32f4xx_hal_i2s_ex.c ****       hi2s->TxRxCpltCallback(hi2s);
 964:Drivers/STM32F4xx_HAL_Driver/Src/stm32f4xx_hal_i2s_ex.c **** #else
 965:Drivers/STM32F4xx_HAL_Driver/Src/stm32f4xx_hal_i2s_ex.c ****       HAL_I2SEx_TxRxCpltCallback(hi2s);
 966:Drivers/STM32F4xx_HAL_Driver/Src/stm32f4xx_hal_i2s_ex.c **** #endif /* USE_HAL_I2S_REGISTER_CALLBACKS */
 967:Drivers/STM32F4xx_HAL_Driver/Src/stm32f4xx_hal_i2s_ex.c ****     }
 968:Drivers/STM32F4xx_HAL_Driver/Src/stm32f4xx_hal_i2s_ex.c ****   }
 969:Drivers/STM32F4xx_HAL_Driver/Src/stm32f4xx_hal_i2s_ex.c **** }
 970:Drivers/STM32F4xx_HAL_Driver/Src/stm32f4xx_hal_i2s_ex.c **** 
 971:Drivers/STM32F4xx_HAL_Driver/Src/stm32f4xx_hal_i2s_ex.c **** /**
 972:Drivers/STM32F4xx_HAL_Driver/Src/stm32f4xx_hal_i2s_ex.c ****   * @brief  I2SExt Full-Duplex IT handler transmit function
 973:Drivers/STM32F4xx_HAL_Driver/Src/stm32f4xx_hal_i2s_ex.c ****   * @param  hi2s I2S handle
 974:Drivers/STM32F4xx_HAL_Driver/Src/stm32f4xx_hal_i2s_ex.c ****   * @retval None
 975:Drivers/STM32F4xx_HAL_Driver/Src/stm32f4xx_hal_i2s_ex.c ****   */
 976:Drivers/STM32F4xx_HAL_Driver/Src/stm32f4xx_hal_i2s_ex.c **** static void I2SEx_TxISR_I2SExt(I2S_HandleTypeDef *hi2s)
 977:Drivers/STM32F4xx_HAL_Driver/Src/stm32f4xx_hal_i2s_ex.c **** {
 978:Drivers/STM32F4xx_HAL_Driver/Src/stm32f4xx_hal_i2s_ex.c ****   /* Write Data on DR register */
 979:Drivers/STM32F4xx_HAL_Driver/Src/stm32f4xx_hal_i2s_ex.c ****   I2SxEXT(hi2s->Instance)->DR = (*hi2s->pTxBuffPtr++);
 980:Drivers/STM32F4xx_HAL_Driver/Src/stm32f4xx_hal_i2s_ex.c ****   hi2s->TxXferCount--;
 981:Drivers/STM32F4xx_HAL_Driver/Src/stm32f4xx_hal_i2s_ex.c **** 
 982:Drivers/STM32F4xx_HAL_Driver/Src/stm32f4xx_hal_i2s_ex.c ****   if (hi2s->TxXferCount == 0U)
 983:Drivers/STM32F4xx_HAL_Driver/Src/stm32f4xx_hal_i2s_ex.c ****   {
 984:Drivers/STM32F4xx_HAL_Driver/Src/stm32f4xx_hal_i2s_ex.c ****     /* Disable I2Sext TXE and ERR interrupt */
 985:Drivers/STM32F4xx_HAL_Driver/Src/stm32f4xx_hal_i2s_ex.c ****     __HAL_I2SEXT_DISABLE_IT(hi2s, (I2S_IT_TXE | I2S_IT_ERR));
 986:Drivers/STM32F4xx_HAL_Driver/Src/stm32f4xx_hal_i2s_ex.c **** 
 987:Drivers/STM32F4xx_HAL_Driver/Src/stm32f4xx_hal_i2s_ex.c ****     if (hi2s->RxXferCount == 0U)
 988:Drivers/STM32F4xx_HAL_Driver/Src/stm32f4xx_hal_i2s_ex.c ****     {
 989:Drivers/STM32F4xx_HAL_Driver/Src/stm32f4xx_hal_i2s_ex.c ****       hi2s->State = HAL_I2S_STATE_READY;
 990:Drivers/STM32F4xx_HAL_Driver/Src/stm32f4xx_hal_i2s_ex.c ****       /* Call user TxRx complete callback */
 991:Drivers/STM32F4xx_HAL_Driver/Src/stm32f4xx_hal_i2s_ex.c **** #if (USE_HAL_I2S_REGISTER_CALLBACKS == 1U)
 992:Drivers/STM32F4xx_HAL_Driver/Src/stm32f4xx_hal_i2s_ex.c ****       hi2s->TxRxCpltCallback(hi2s);
 993:Drivers/STM32F4xx_HAL_Driver/Src/stm32f4xx_hal_i2s_ex.c **** #else
 994:Drivers/STM32F4xx_HAL_Driver/Src/stm32f4xx_hal_i2s_ex.c ****       HAL_I2SEx_TxRxCpltCallback(hi2s);
 995:Drivers/STM32F4xx_HAL_Driver/Src/stm32f4xx_hal_i2s_ex.c **** #endif /* USE_HAL_I2S_REGISTER_CALLBACKS */
 996:Drivers/STM32F4xx_HAL_Driver/Src/stm32f4xx_hal_i2s_ex.c ****     }
 997:Drivers/STM32F4xx_HAL_Driver/Src/stm32f4xx_hal_i2s_ex.c ****   }
 998:Drivers/STM32F4xx_HAL_Driver/Src/stm32f4xx_hal_i2s_ex.c **** }
 999:Drivers/STM32F4xx_HAL_Driver/Src/stm32f4xx_hal_i2s_ex.c **** 
ARM GAS  /tmp/ccQYaWvF.s 			page 19


1000:Drivers/STM32F4xx_HAL_Driver/Src/stm32f4xx_hal_i2s_ex.c **** /**
1001:Drivers/STM32F4xx_HAL_Driver/Src/stm32f4xx_hal_i2s_ex.c ****   * @brief  I2S Full-Duplex IT handler receive function
1002:Drivers/STM32F4xx_HAL_Driver/Src/stm32f4xx_hal_i2s_ex.c ****   * @param  hi2s I2S handle
1003:Drivers/STM32F4xx_HAL_Driver/Src/stm32f4xx_hal_i2s_ex.c ****   * @retval None
1004:Drivers/STM32F4xx_HAL_Driver/Src/stm32f4xx_hal_i2s_ex.c ****   */
1005:Drivers/STM32F4xx_HAL_Driver/Src/stm32f4xx_hal_i2s_ex.c **** static void I2SEx_RxISR_I2S(I2S_HandleTypeDef *hi2s)
1006:Drivers/STM32F4xx_HAL_Driver/Src/stm32f4xx_hal_i2s_ex.c **** {
1007:Drivers/STM32F4xx_HAL_Driver/Src/stm32f4xx_hal_i2s_ex.c ****   /* Read Data from DR register */
1008:Drivers/STM32F4xx_HAL_Driver/Src/stm32f4xx_hal_i2s_ex.c ****   (*hi2s->pRxBuffPtr++) = hi2s->Instance->DR;
1009:Drivers/STM32F4xx_HAL_Driver/Src/stm32f4xx_hal_i2s_ex.c ****   hi2s->RxXferCount--;
1010:Drivers/STM32F4xx_HAL_Driver/Src/stm32f4xx_hal_i2s_ex.c **** 
1011:Drivers/STM32F4xx_HAL_Driver/Src/stm32f4xx_hal_i2s_ex.c ****   if (hi2s->RxXferCount == 0U)
1012:Drivers/STM32F4xx_HAL_Driver/Src/stm32f4xx_hal_i2s_ex.c ****   {
1013:Drivers/STM32F4xx_HAL_Driver/Src/stm32f4xx_hal_i2s_ex.c ****     /* Disable RXNE and ERR interrupt */
1014:Drivers/STM32F4xx_HAL_Driver/Src/stm32f4xx_hal_i2s_ex.c ****     __HAL_I2S_DISABLE_IT(hi2s, (I2S_IT_RXNE | I2S_IT_ERR));
1015:Drivers/STM32F4xx_HAL_Driver/Src/stm32f4xx_hal_i2s_ex.c **** 
1016:Drivers/STM32F4xx_HAL_Driver/Src/stm32f4xx_hal_i2s_ex.c ****     if (hi2s->TxXferCount == 0U)
1017:Drivers/STM32F4xx_HAL_Driver/Src/stm32f4xx_hal_i2s_ex.c ****     {
1018:Drivers/STM32F4xx_HAL_Driver/Src/stm32f4xx_hal_i2s_ex.c ****       hi2s->State = HAL_I2S_STATE_READY;
1019:Drivers/STM32F4xx_HAL_Driver/Src/stm32f4xx_hal_i2s_ex.c ****       /* Call user TxRx complete callback */
1020:Drivers/STM32F4xx_HAL_Driver/Src/stm32f4xx_hal_i2s_ex.c **** #if (USE_HAL_I2S_REGISTER_CALLBACKS == 1U)
1021:Drivers/STM32F4xx_HAL_Driver/Src/stm32f4xx_hal_i2s_ex.c ****       hi2s->TxRxCpltCallback(hi2s);
1022:Drivers/STM32F4xx_HAL_Driver/Src/stm32f4xx_hal_i2s_ex.c **** #else
1023:Drivers/STM32F4xx_HAL_Driver/Src/stm32f4xx_hal_i2s_ex.c ****       HAL_I2SEx_TxRxCpltCallback(hi2s);
1024:Drivers/STM32F4xx_HAL_Driver/Src/stm32f4xx_hal_i2s_ex.c **** #endif /* USE_HAL_I2S_REGISTER_CALLBACKS */
1025:Drivers/STM32F4xx_HAL_Driver/Src/stm32f4xx_hal_i2s_ex.c ****     }
1026:Drivers/STM32F4xx_HAL_Driver/Src/stm32f4xx_hal_i2s_ex.c ****   }
1027:Drivers/STM32F4xx_HAL_Driver/Src/stm32f4xx_hal_i2s_ex.c **** }
1028:Drivers/STM32F4xx_HAL_Driver/Src/stm32f4xx_hal_i2s_ex.c **** 
1029:Drivers/STM32F4xx_HAL_Driver/Src/stm32f4xx_hal_i2s_ex.c **** /**
1030:Drivers/STM32F4xx_HAL_Driver/Src/stm32f4xx_hal_i2s_ex.c ****   * @brief  I2SExt Full-Duplex IT handler receive function
1031:Drivers/STM32F4xx_HAL_Driver/Src/stm32f4xx_hal_i2s_ex.c ****   * @param  hi2s I2S handle
1032:Drivers/STM32F4xx_HAL_Driver/Src/stm32f4xx_hal_i2s_ex.c ****   * @retval None
1033:Drivers/STM32F4xx_HAL_Driver/Src/stm32f4xx_hal_i2s_ex.c ****   */
1034:Drivers/STM32F4xx_HAL_Driver/Src/stm32f4xx_hal_i2s_ex.c **** static void I2SEx_RxISR_I2SExt(I2S_HandleTypeDef *hi2s)
1035:Drivers/STM32F4xx_HAL_Driver/Src/stm32f4xx_hal_i2s_ex.c **** {
1036:Drivers/STM32F4xx_HAL_Driver/Src/stm32f4xx_hal_i2s_ex.c ****   /* Read Data from DR register */
1037:Drivers/STM32F4xx_HAL_Driver/Src/stm32f4xx_hal_i2s_ex.c ****   (*hi2s->pRxBuffPtr++) = I2SxEXT(hi2s->Instance)->DR;
1038:Drivers/STM32F4xx_HAL_Driver/Src/stm32f4xx_hal_i2s_ex.c ****   hi2s->RxXferCount--;
1039:Drivers/STM32F4xx_HAL_Driver/Src/stm32f4xx_hal_i2s_ex.c **** 
1040:Drivers/STM32F4xx_HAL_Driver/Src/stm32f4xx_hal_i2s_ex.c ****   if (hi2s->RxXferCount == 0U)
1041:Drivers/STM32F4xx_HAL_Driver/Src/stm32f4xx_hal_i2s_ex.c ****   {
1042:Drivers/STM32F4xx_HAL_Driver/Src/stm32f4xx_hal_i2s_ex.c ****     /* Disable I2Sext RXNE and ERR interrupt */
1043:Drivers/STM32F4xx_HAL_Driver/Src/stm32f4xx_hal_i2s_ex.c ****     __HAL_I2SEXT_DISABLE_IT(hi2s, (I2S_IT_RXNE | I2S_IT_ERR));
1044:Drivers/STM32F4xx_HAL_Driver/Src/stm32f4xx_hal_i2s_ex.c **** 
1045:Drivers/STM32F4xx_HAL_Driver/Src/stm32f4xx_hal_i2s_ex.c ****     if (hi2s->TxXferCount == 0U)
1046:Drivers/STM32F4xx_HAL_Driver/Src/stm32f4xx_hal_i2s_ex.c ****     {
1047:Drivers/STM32F4xx_HAL_Driver/Src/stm32f4xx_hal_i2s_ex.c ****       hi2s->State = HAL_I2S_STATE_READY;
1048:Drivers/STM32F4xx_HAL_Driver/Src/stm32f4xx_hal_i2s_ex.c ****       /* Call user TxRx complete callback */
1049:Drivers/STM32F4xx_HAL_Driver/Src/stm32f4xx_hal_i2s_ex.c **** #if (USE_HAL_I2S_REGISTER_CALLBACKS == 1U)
1050:Drivers/STM32F4xx_HAL_Driver/Src/stm32f4xx_hal_i2s_ex.c ****       hi2s->TxRxCpltCallback(hi2s);
1051:Drivers/STM32F4xx_HAL_Driver/Src/stm32f4xx_hal_i2s_ex.c **** #else
1052:Drivers/STM32F4xx_HAL_Driver/Src/stm32f4xx_hal_i2s_ex.c ****       HAL_I2SEx_TxRxCpltCallback(hi2s);
1053:Drivers/STM32F4xx_HAL_Driver/Src/stm32f4xx_hal_i2s_ex.c **** #endif /* USE_HAL_I2S_REGISTER_CALLBACKS */
1054:Drivers/STM32F4xx_HAL_Driver/Src/stm32f4xx_hal_i2s_ex.c ****     }
1055:Drivers/STM32F4xx_HAL_Driver/Src/stm32f4xx_hal_i2s_ex.c ****   }
1056:Drivers/STM32F4xx_HAL_Driver/Src/stm32f4xx_hal_i2s_ex.c **** }
ARM GAS  /tmp/ccQYaWvF.s 			page 20


1057:Drivers/STM32F4xx_HAL_Driver/Src/stm32f4xx_hal_i2s_ex.c **** 
1058:Drivers/STM32F4xx_HAL_Driver/Src/stm32f4xx_hal_i2s_ex.c **** /**
1059:Drivers/STM32F4xx_HAL_Driver/Src/stm32f4xx_hal_i2s_ex.c ****   * @brief This function handles I2S Communication Timeout.
1060:Drivers/STM32F4xx_HAL_Driver/Src/stm32f4xx_hal_i2s_ex.c ****   * @param hi2s I2S handle
1061:Drivers/STM32F4xx_HAL_Driver/Src/stm32f4xx_hal_i2s_ex.c ****   * @param Flag Flag checked
1062:Drivers/STM32F4xx_HAL_Driver/Src/stm32f4xx_hal_i2s_ex.c ****   * @param State Value of the flag expected
1063:Drivers/STM32F4xx_HAL_Driver/Src/stm32f4xx_hal_i2s_ex.c ****   * @param Timeout Duration of the timeout
1064:Drivers/STM32F4xx_HAL_Driver/Src/stm32f4xx_hal_i2s_ex.c ****   * @param i2sUsed I2S instance reference
1065:Drivers/STM32F4xx_HAL_Driver/Src/stm32f4xx_hal_i2s_ex.c ****   * @retval HAL status
1066:Drivers/STM32F4xx_HAL_Driver/Src/stm32f4xx_hal_i2s_ex.c ****   */
1067:Drivers/STM32F4xx_HAL_Driver/Src/stm32f4xx_hal_i2s_ex.c **** static HAL_StatusTypeDef I2SEx_FullDuplexWaitFlagStateUntilTimeout(I2S_HandleTypeDef *hi2s,
1068:Drivers/STM32F4xx_HAL_Driver/Src/stm32f4xx_hal_i2s_ex.c ****                                                                    uint32_t Flag,
1069:Drivers/STM32F4xx_HAL_Driver/Src/stm32f4xx_hal_i2s_ex.c ****                                                                    uint32_t State,
1070:Drivers/STM32F4xx_HAL_Driver/Src/stm32f4xx_hal_i2s_ex.c ****                                                                    uint32_t Timeout,
1071:Drivers/STM32F4xx_HAL_Driver/Src/stm32f4xx_hal_i2s_ex.c ****                                                                    I2S_UseTypeDef i2sUsed)
1072:Drivers/STM32F4xx_HAL_Driver/Src/stm32f4xx_hal_i2s_ex.c **** {
  29              		.loc 1 1072 1 view -0
  30              		.cfi_startproc
  31              		@ args = 4, pretend = 0, frame = 0
  32              		@ frame_needed = 0, uses_anonymous_args = 0
  33              		.loc 1 1072 1 is_stmt 0 view .LVU1
  34 0000 2DE9F047 		push	{r4, r5, r6, r7, r8, r9, r10, lr}
  35              		.cfi_def_cfa_offset 32
  36              		.cfi_offset 4, -32
  37              		.cfi_offset 5, -28
  38              		.cfi_offset 6, -24
  39              		.cfi_offset 7, -20
  40              		.cfi_offset 8, -16
  41              		.cfi_offset 9, -12
  42              		.cfi_offset 10, -8
  43              		.cfi_offset 14, -4
  44 0004 0646     		mov	r6, r0
  45 0006 0F46     		mov	r7, r1
  46 0008 9046     		mov	r8, r2
  47 000a 1D46     		mov	r5, r3
  48 000c 9DF820A0 		ldrb	r10, [sp, #32]	@ zero_extendqisi2
1073:Drivers/STM32F4xx_HAL_Driver/Src/stm32f4xx_hal_i2s_ex.c ****   uint32_t tickstart = HAL_GetTick();
  49              		.loc 1 1073 3 is_stmt 1 view .LVU2
  50              		.loc 1 1073 24 is_stmt 0 view .LVU3
  51 0010 FFF7FEFF 		bl	HAL_GetTick
  52              	.LVL1:
  53              		.loc 1 1073 24 view .LVU4
  54 0014 8146     		mov	r9, r0
  55              	.LVL2:
1074:Drivers/STM32F4xx_HAL_Driver/Src/stm32f4xx_hal_i2s_ex.c **** 
1075:Drivers/STM32F4xx_HAL_Driver/Src/stm32f4xx_hal_i2s_ex.c ****   if (i2sUsed == I2S_USE_I2S)
  56              		.loc 1 1075 3 is_stmt 1 view .LVU5
  57              		.loc 1 1075 6 is_stmt 0 view .LVU6
  58 0016 BAF1000F 		cmp	r10, #0
  59 001a 15D0     		beq	.L4
  60 001c 36E0     		b	.L9
  61              	.LVL3:
  62              	.L19:
1076:Drivers/STM32F4xx_HAL_Driver/Src/stm32f4xx_hal_i2s_ex.c ****   {
1077:Drivers/STM32F4xx_HAL_Driver/Src/stm32f4xx_hal_i2s_ex.c ****     /* Wait until flag is reset */
1078:Drivers/STM32F4xx_HAL_Driver/Src/stm32f4xx_hal_i2s_ex.c ****     while (((__HAL_I2S_GET_FLAG(hi2s, Flag)) ? SET : RESET) != State)
1079:Drivers/STM32F4xx_HAL_Driver/Src/stm32f4xx_hal_i2s_ex.c ****     {
ARM GAS  /tmp/ccQYaWvF.s 			page 21


1080:Drivers/STM32F4xx_HAL_Driver/Src/stm32f4xx_hal_i2s_ex.c ****       if (Timeout != HAL_MAX_DELAY)
1081:Drivers/STM32F4xx_HAL_Driver/Src/stm32f4xx_hal_i2s_ex.c ****       {
1082:Drivers/STM32F4xx_HAL_Driver/Src/stm32f4xx_hal_i2s_ex.c ****         if ((Timeout == 0U) || ((HAL_GetTick() - tickstart) > Timeout))
  63              		.loc 1 1082 9 is_stmt 1 view .LVU7
  64              		.loc 1 1082 12 is_stmt 0 view .LVU8
  65 001e 2DB1     		cbz	r5, .L5
  66              		.loc 1 1082 34 discriminator 1 view .LVU9
  67 0020 FFF7FEFF 		bl	HAL_GetTick
  68              	.LVL4:
  69              		.loc 1 1082 48 discriminator 1 view .LVU10
  70 0024 A0EB0900 		sub	r0, r0, r9
  71              		.loc 1 1082 29 discriminator 1 view .LVU11
  72 0028 A842     		cmp	r0, r5
  73 002a 0DD9     		bls	.L4
  74              	.L5:
1083:Drivers/STM32F4xx_HAL_Driver/Src/stm32f4xx_hal_i2s_ex.c ****         {
1084:Drivers/STM32F4xx_HAL_Driver/Src/stm32f4xx_hal_i2s_ex.c ****           /* Set the I2S State ready */
1085:Drivers/STM32F4xx_HAL_Driver/Src/stm32f4xx_hal_i2s_ex.c ****           hi2s->State = HAL_I2S_STATE_READY;
  75              		.loc 1 1085 11 is_stmt 1 view .LVU12
  76              		.loc 1 1085 23 is_stmt 0 view .LVU13
  77 002c 0123     		movs	r3, #1
  78 002e 86F84130 		strb	r3, [r6, #65]
1086:Drivers/STM32F4xx_HAL_Driver/Src/stm32f4xx_hal_i2s_ex.c **** 
1087:Drivers/STM32F4xx_HAL_Driver/Src/stm32f4xx_hal_i2s_ex.c ****           /* Process Unlocked */
1088:Drivers/STM32F4xx_HAL_Driver/Src/stm32f4xx_hal_i2s_ex.c ****           __HAL_UNLOCK(hi2s);
  79              		.loc 1 1088 11 is_stmt 1 view .LVU14
  80              		.loc 1 1088 11 view .LVU15
  81 0032 0023     		movs	r3, #0
  82 0034 86F84030 		strb	r3, [r6, #64]
  83              		.loc 1 1088 11 view .LVU16
1089:Drivers/STM32F4xx_HAL_Driver/Src/stm32f4xx_hal_i2s_ex.c **** 
1090:Drivers/STM32F4xx_HAL_Driver/Src/stm32f4xx_hal_i2s_ex.c ****           return HAL_TIMEOUT;
  84              		.loc 1 1090 11 view .LVU17
  85              		.loc 1 1090 18 is_stmt 0 view .LVU18
  86 0038 0320     		movs	r0, #3
  87 003a 0DE0     		b	.L6
  88              	.L20:
1078:Drivers/STM32F4xx_HAL_Driver/Src/stm32f4xx_hal_i2s_ex.c ****     {
  89              		.loc 1 1078 52 discriminator 1 view .LVU19
  90 003c 0123     		movs	r3, #1
  91              	.L7:
1078:Drivers/STM32F4xx_HAL_Driver/Src/stm32f4xx_hal_i2s_ex.c ****     {
  92              		.loc 1 1078 61 discriminator 4 view .LVU20
  93 003e 4345     		cmp	r3, r8
  94 0040 09D0     		beq	.L18
1080:Drivers/STM32F4xx_HAL_Driver/Src/stm32f4xx_hal_i2s_ex.c ****       {
  95              		.loc 1 1080 7 is_stmt 1 view .LVU21
1080:Drivers/STM32F4xx_HAL_Driver/Src/stm32f4xx_hal_i2s_ex.c ****       {
  96              		.loc 1 1080 10 is_stmt 0 view .LVU22
  97 0042 B5F1FF3F 		cmp	r5, #-1
  98 0046 EAD1     		bne	.L19
  99              	.L4:
1078:Drivers/STM32F4xx_HAL_Driver/Src/stm32f4xx_hal_i2s_ex.c ****     {
 100              		.loc 1 1078 61 is_stmt 1 view .LVU23
1078:Drivers/STM32F4xx_HAL_Driver/Src/stm32f4xx_hal_i2s_ex.c ****     {
 101              		.loc 1 1078 14 is_stmt 0 view .LVU24
 102 0048 3368     		ldr	r3, [r6]
ARM GAS  /tmp/ccQYaWvF.s 			page 22


 103 004a 9C68     		ldr	r4, [r3, #8]
1078:Drivers/STM32F4xx_HAL_Driver/Src/stm32f4xx_hal_i2s_ex.c ****     {
 104              		.loc 1 1078 52 view .LVU25
 105 004c 37EA0404 		bics	r4, r7, r4
 106 0050 F4D0     		beq	.L20
1078:Drivers/STM32F4xx_HAL_Driver/Src/stm32f4xx_hal_i2s_ex.c ****     {
 107              		.loc 1 1078 52 discriminator 2 view .LVU26
 108 0052 0023     		movs	r3, #0
 109 0054 F3E7     		b	.L7
 110              	.L18:
1091:Drivers/STM32F4xx_HAL_Driver/Src/stm32f4xx_hal_i2s_ex.c ****         }
1092:Drivers/STM32F4xx_HAL_Driver/Src/stm32f4xx_hal_i2s_ex.c ****       }
1093:Drivers/STM32F4xx_HAL_Driver/Src/stm32f4xx_hal_i2s_ex.c ****     }
1094:Drivers/STM32F4xx_HAL_Driver/Src/stm32f4xx_hal_i2s_ex.c ****   }
1095:Drivers/STM32F4xx_HAL_Driver/Src/stm32f4xx_hal_i2s_ex.c ****   else /* i2sUsed == I2S_USE_I2SEXT */
1096:Drivers/STM32F4xx_HAL_Driver/Src/stm32f4xx_hal_i2s_ex.c ****   {
1097:Drivers/STM32F4xx_HAL_Driver/Src/stm32f4xx_hal_i2s_ex.c ****     /* Wait until flag is reset */
1098:Drivers/STM32F4xx_HAL_Driver/Src/stm32f4xx_hal_i2s_ex.c ****     while (((__HAL_I2SEXT_GET_FLAG(hi2s, Flag)) ? SET : RESET) != State)
1099:Drivers/STM32F4xx_HAL_Driver/Src/stm32f4xx_hal_i2s_ex.c ****     {
1100:Drivers/STM32F4xx_HAL_Driver/Src/stm32f4xx_hal_i2s_ex.c ****       if (Timeout != HAL_MAX_DELAY)
1101:Drivers/STM32F4xx_HAL_Driver/Src/stm32f4xx_hal_i2s_ex.c ****       {
1102:Drivers/STM32F4xx_HAL_Driver/Src/stm32f4xx_hal_i2s_ex.c ****         if ((Timeout == 0U) || ((HAL_GetTick() - tickstart) > Timeout))
1103:Drivers/STM32F4xx_HAL_Driver/Src/stm32f4xx_hal_i2s_ex.c ****         {
1104:Drivers/STM32F4xx_HAL_Driver/Src/stm32f4xx_hal_i2s_ex.c ****           /* Set the I2S State ready */
1105:Drivers/STM32F4xx_HAL_Driver/Src/stm32f4xx_hal_i2s_ex.c ****           hi2s->State = HAL_I2S_STATE_READY;
1106:Drivers/STM32F4xx_HAL_Driver/Src/stm32f4xx_hal_i2s_ex.c **** 
1107:Drivers/STM32F4xx_HAL_Driver/Src/stm32f4xx_hal_i2s_ex.c ****           /* Process Unlocked */
1108:Drivers/STM32F4xx_HAL_Driver/Src/stm32f4xx_hal_i2s_ex.c ****           __HAL_UNLOCK(hi2s);
1109:Drivers/STM32F4xx_HAL_Driver/Src/stm32f4xx_hal_i2s_ex.c **** 
1110:Drivers/STM32F4xx_HAL_Driver/Src/stm32f4xx_hal_i2s_ex.c ****           return HAL_TIMEOUT;
1111:Drivers/STM32F4xx_HAL_Driver/Src/stm32f4xx_hal_i2s_ex.c ****         }
1112:Drivers/STM32F4xx_HAL_Driver/Src/stm32f4xx_hal_i2s_ex.c ****       }
1113:Drivers/STM32F4xx_HAL_Driver/Src/stm32f4xx_hal_i2s_ex.c ****     }
1114:Drivers/STM32F4xx_HAL_Driver/Src/stm32f4xx_hal_i2s_ex.c ****   }
1115:Drivers/STM32F4xx_HAL_Driver/Src/stm32f4xx_hal_i2s_ex.c ****   return HAL_OK;
 111              		.loc 1 1115 10 view .LVU27
 112 0056 5046     		mov	r0, r10
 113              	.L6:
1116:Drivers/STM32F4xx_HAL_Driver/Src/stm32f4xx_hal_i2s_ex.c **** }
 114              		.loc 1 1116 1 view .LVU28
 115 0058 BDE8F087 		pop	{r4, r5, r6, r7, r8, r9, r10, pc}
 116              	.LVL5:
 117              	.L22:
1102:Drivers/STM32F4xx_HAL_Driver/Src/stm32f4xx_hal_i2s_ex.c ****         {
 118              		.loc 1 1102 9 is_stmt 1 view .LVU29
1102:Drivers/STM32F4xx_HAL_Driver/Src/stm32f4xx_hal_i2s_ex.c ****         {
 119              		.loc 1 1102 12 is_stmt 0 view .LVU30
 120 005c 2DB1     		cbz	r5, .L10
1102:Drivers/STM32F4xx_HAL_Driver/Src/stm32f4xx_hal_i2s_ex.c ****         {
 121              		.loc 1 1102 34 discriminator 1 view .LVU31
 122 005e FFF7FEFF 		bl	HAL_GetTick
 123              	.LVL6:
1102:Drivers/STM32F4xx_HAL_Driver/Src/stm32f4xx_hal_i2s_ex.c ****         {
 124              		.loc 1 1102 48 discriminator 1 view .LVU32
 125 0062 A0EB0900 		sub	r0, r0, r9
1102:Drivers/STM32F4xx_HAL_Driver/Src/stm32f4xx_hal_i2s_ex.c ****         {
 126              		.loc 1 1102 29 discriminator 1 view .LVU33
ARM GAS  /tmp/ccQYaWvF.s 			page 23


 127 0066 A842     		cmp	r0, r5
 128 0068 10D9     		bls	.L9
 129              	.L10:
1105:Drivers/STM32F4xx_HAL_Driver/Src/stm32f4xx_hal_i2s_ex.c **** 
 130              		.loc 1 1105 11 is_stmt 1 view .LVU34
1105:Drivers/STM32F4xx_HAL_Driver/Src/stm32f4xx_hal_i2s_ex.c **** 
 131              		.loc 1 1105 23 is_stmt 0 view .LVU35
 132 006a 0123     		movs	r3, #1
 133 006c 86F84130 		strb	r3, [r6, #65]
1108:Drivers/STM32F4xx_HAL_Driver/Src/stm32f4xx_hal_i2s_ex.c **** 
 134              		.loc 1 1108 11 is_stmt 1 view .LVU36
1108:Drivers/STM32F4xx_HAL_Driver/Src/stm32f4xx_hal_i2s_ex.c **** 
 135              		.loc 1 1108 11 view .LVU37
 136 0070 0023     		movs	r3, #0
 137 0072 86F84030 		strb	r3, [r6, #64]
1108:Drivers/STM32F4xx_HAL_Driver/Src/stm32f4xx_hal_i2s_ex.c **** 
 138              		.loc 1 1108 11 view .LVU38
1110:Drivers/STM32F4xx_HAL_Driver/Src/stm32f4xx_hal_i2s_ex.c ****         }
 139              		.loc 1 1110 11 view .LVU39
1110:Drivers/STM32F4xx_HAL_Driver/Src/stm32f4xx_hal_i2s_ex.c ****         }
 140              		.loc 1 1110 18 is_stmt 0 view .LVU40
 141 0076 0320     		movs	r0, #3
 142 0078 EEE7     		b	.L6
 143              	.L23:
1098:Drivers/STM32F4xx_HAL_Driver/Src/stm32f4xx_hal_i2s_ex.c ****     {
 144              		.loc 1 1098 14 discriminator 1 view .LVU41
 145 007a A3F58063 		sub	r3, r3, #1024
 146 007e 0BE0     		b	.L11
 147              	.L24:
1098:Drivers/STM32F4xx_HAL_Driver/Src/stm32f4xx_hal_i2s_ex.c ****     {
 148              		.loc 1 1098 55 discriminator 5 view .LVU42
 149 0080 0123     		movs	r3, #1
 150              	.L12:
1098:Drivers/STM32F4xx_HAL_Driver/Src/stm32f4xx_hal_i2s_ex.c ****     {
 151              		.loc 1 1098 64 discriminator 8 view .LVU43
 152 0082 4345     		cmp	r3, r8
 153 0084 0ED0     		beq	.L21
1100:Drivers/STM32F4xx_HAL_Driver/Src/stm32f4xx_hal_i2s_ex.c ****       {
 154              		.loc 1 1100 7 is_stmt 1 view .LVU44
1100:Drivers/STM32F4xx_HAL_Driver/Src/stm32f4xx_hal_i2s_ex.c ****       {
 155              		.loc 1 1100 10 is_stmt 0 view .LVU45
 156 0086 B5F1FF3F 		cmp	r5, #-1
 157 008a E7D1     		bne	.L22
 158              	.L9:
1098:Drivers/STM32F4xx_HAL_Driver/Src/stm32f4xx_hal_i2s_ex.c ****     {
 159              		.loc 1 1098 64 is_stmt 1 view .LVU46
1098:Drivers/STM32F4xx_HAL_Driver/Src/stm32f4xx_hal_i2s_ex.c ****     {
 160              		.loc 1 1098 14 is_stmt 0 view .LVU47
 161 008c 3268     		ldr	r2, [r6]
 162 008e 064B     		ldr	r3, .L25
 163 0090 9A42     		cmp	r2, r3
 164 0092 F2D0     		beq	.L23
1098:Drivers/STM32F4xx_HAL_Driver/Src/stm32f4xx_hal_i2s_ex.c ****     {
 165              		.loc 1 1098 14 discriminator 2 view .LVU48
 166 0094 4FF04023 		mov	r3, #1073758208
 167              	.L11:
1098:Drivers/STM32F4xx_HAL_Driver/Src/stm32f4xx_hal_i2s_ex.c ****     {
ARM GAS  /tmp/ccQYaWvF.s 			page 24


 168              		.loc 1 1098 14 discriminator 4 view .LVU49
 169 0098 9C68     		ldr	r4, [r3, #8]
1098:Drivers/STM32F4xx_HAL_Driver/Src/stm32f4xx_hal_i2s_ex.c ****     {
 170              		.loc 1 1098 55 discriminator 4 view .LVU50
 171 009a 37EA0404 		bics	r4, r7, r4
 172 009e EFD0     		beq	.L24
1098:Drivers/STM32F4xx_HAL_Driver/Src/stm32f4xx_hal_i2s_ex.c ****     {
 173              		.loc 1 1098 55 discriminator 6 view .LVU51
 174 00a0 0023     		movs	r3, #0
 175 00a2 EEE7     		b	.L12
 176              	.L21:
1115:Drivers/STM32F4xx_HAL_Driver/Src/stm32f4xx_hal_i2s_ex.c **** }
 177              		.loc 1 1115 10 view .LVU52
 178 00a4 0020     		movs	r0, #0
 179 00a6 D7E7     		b	.L6
 180              	.L26:
 181              		.align	2
 182              	.L25:
 183 00a8 00380040 		.word	1073756160
 184              		.cfi_endproc
 185              	.LFE147:
 187              		.section	.text.I2SEx_TxRxDMAError,"ax",%progbits
 188              		.align	1
 189              		.syntax unified
 190              		.thumb
 191              		.thumb_func
 193              	I2SEx_TxRxDMAError:
 194              	.LVL7:
 195              	.LFB142:
 920:Drivers/STM32F4xx_HAL_Driver/Src/stm32f4xx_hal_i2s_ex.c ****   I2S_HandleTypeDef *hi2s = (I2S_HandleTypeDef *)((DMA_HandleTypeDef *)hdma)->Parent;
 196              		.loc 1 920 1 is_stmt 1 view -0
 197              		.cfi_startproc
 198              		@ args = 0, pretend = 0, frame = 0
 199              		@ frame_needed = 0, uses_anonymous_args = 0
 920:Drivers/STM32F4xx_HAL_Driver/Src/stm32f4xx_hal_i2s_ex.c ****   I2S_HandleTypeDef *hi2s = (I2S_HandleTypeDef *)((DMA_HandleTypeDef *)hdma)->Parent;
 200              		.loc 1 920 1 is_stmt 0 view .LVU54
 201 0000 08B5     		push	{r3, lr}
 202              		.cfi_def_cfa_offset 8
 203              		.cfi_offset 3, -8
 204              		.cfi_offset 14, -4
 921:Drivers/STM32F4xx_HAL_Driver/Src/stm32f4xx_hal_i2s_ex.c **** 
 205              		.loc 1 921 3 is_stmt 1 view .LVU55
 921:Drivers/STM32F4xx_HAL_Driver/Src/stm32f4xx_hal_i2s_ex.c **** 
 206              		.loc 1 921 22 is_stmt 0 view .LVU56
 207 0002 806B     		ldr	r0, [r0, #56]
 208              	.LVL8:
 924:Drivers/STM32F4xx_HAL_Driver/Src/stm32f4xx_hal_i2s_ex.c ****   CLEAR_BIT(I2SxEXT(hi2s->Instance)->CR2, (SPI_CR2_RXDMAEN | SPI_CR2_TXDMAEN));
 209              		.loc 1 924 3 is_stmt 1 view .LVU57
 210 0004 0268     		ldr	r2, [r0]
 211 0006 5368     		ldr	r3, [r2, #4]
 212 0008 23F00303 		bic	r3, r3, #3
 213 000c 5360     		str	r3, [r2, #4]
 925:Drivers/STM32F4xx_HAL_Driver/Src/stm32f4xx_hal_i2s_ex.c **** 
 214              		.loc 1 925 3 view .LVU58
 215 000e 0268     		ldr	r2, [r0]
 216 0010 0B4B     		ldr	r3, .L32
 217 0012 9A42     		cmp	r2, r3
ARM GAS  /tmp/ccQYaWvF.s 			page 25


 218 0014 12D0     		beq	.L31
 925:Drivers/STM32F4xx_HAL_Driver/Src/stm32f4xx_hal_i2s_ex.c **** 
 219              		.loc 1 925 3 is_stmt 0 discriminator 2 view .LVU59
 220 0016 4FF04022 		mov	r2, #1073758208
 221              	.L28:
 925:Drivers/STM32F4xx_HAL_Driver/Src/stm32f4xx_hal_i2s_ex.c **** 
 222              		.loc 1 925 3 discriminator 4 view .LVU60
 223 001a 5368     		ldr	r3, [r2, #4]
 925:Drivers/STM32F4xx_HAL_Driver/Src/stm32f4xx_hal_i2s_ex.c **** 
 224              		.loc 1 925 3 discriminator 8 view .LVU61
 225 001c 23F00303 		bic	r3, r3, #3
 226 0020 5360     		str	r3, [r2, #4]
 927:Drivers/STM32F4xx_HAL_Driver/Src/stm32f4xx_hal_i2s_ex.c ****   hi2s->RxXferCount = 0U;
 227              		.loc 1 927 3 is_stmt 1 view .LVU62
 927:Drivers/STM32F4xx_HAL_Driver/Src/stm32f4xx_hal_i2s_ex.c ****   hi2s->RxXferCount = 0U;
 228              		.loc 1 927 21 is_stmt 0 view .LVU63
 229 0022 0023     		movs	r3, #0
 230 0024 4385     		strh	r3, [r0, #42]	@ movhi
 928:Drivers/STM32F4xx_HAL_Driver/Src/stm32f4xx_hal_i2s_ex.c **** 
 231              		.loc 1 928 3 is_stmt 1 view .LVU64
 928:Drivers/STM32F4xx_HAL_Driver/Src/stm32f4xx_hal_i2s_ex.c **** 
 232              		.loc 1 928 21 is_stmt 0 view .LVU65
 233 0026 4386     		strh	r3, [r0, #50]	@ movhi
 930:Drivers/STM32F4xx_HAL_Driver/Src/stm32f4xx_hal_i2s_ex.c **** 
 234              		.loc 1 930 3 is_stmt 1 view .LVU66
 930:Drivers/STM32F4xx_HAL_Driver/Src/stm32f4xx_hal_i2s_ex.c **** 
 235              		.loc 1 930 15 is_stmt 0 view .LVU67
 236 0028 0123     		movs	r3, #1
 237 002a 80F84130 		strb	r3, [r0, #65]
 933:Drivers/STM32F4xx_HAL_Driver/Src/stm32f4xx_hal_i2s_ex.c ****   /* Call user error callback */
 238              		.loc 1 933 3 is_stmt 1 view .LVU68
 239 002e 436C     		ldr	r3, [r0, #68]
 240 0030 43F00803 		orr	r3, r3, #8
 241 0034 4364     		str	r3, [r0, #68]
 938:Drivers/STM32F4xx_HAL_Driver/Src/stm32f4xx_hal_i2s_ex.c **** #endif /* USE_HAL_I2S_REGISTER_CALLBACKS */
 242              		.loc 1 938 3 view .LVU69
 243 0036 FFF7FEFF 		bl	HAL_I2S_ErrorCallback
 244              	.LVL9:
 940:Drivers/STM32F4xx_HAL_Driver/Src/stm32f4xx_hal_i2s_ex.c **** 
 245              		.loc 1 940 1 is_stmt 0 view .LVU70
 246 003a 08BD     		pop	{r3, pc}
 247              	.LVL10:
 248              	.L31:
 925:Drivers/STM32F4xx_HAL_Driver/Src/stm32f4xx_hal_i2s_ex.c **** 
 249              		.loc 1 925 3 discriminator 1 view .LVU71
 250 003c 014A     		ldr	r2, .L32+4
 251 003e ECE7     		b	.L28
 252              	.L33:
 253              		.align	2
 254              	.L32:
 255 0040 00380040 		.word	1073756160
 256 0044 00340040 		.word	1073755136
 257              		.cfi_endproc
 258              	.LFE142:
 260              		.section	.text.HAL_I2SEx_TransmitReceive,"ax",%progbits
 261              		.align	1
 262              		.global	HAL_I2SEx_TransmitReceive
ARM GAS  /tmp/ccQYaWvF.s 			page 26


 263              		.syntax unified
 264              		.thumb
 265              		.thumb_func
 267              	HAL_I2SEx_TransmitReceive:
 268              	.LVL11:
 269              	.LFB134:
 211:Drivers/STM32F4xx_HAL_Driver/Src/stm32f4xx_hal_i2s_ex.c ****   uint32_t tmp1 = 0U;
 270              		.loc 1 211 1 is_stmt 1 view -0
 271              		.cfi_startproc
 272              		@ args = 4, pretend = 0, frame = 24
 273              		@ frame_needed = 0, uses_anonymous_args = 0
 211:Drivers/STM32F4xx_HAL_Driver/Src/stm32f4xx_hal_i2s_ex.c ****   uint32_t tmp1 = 0U;
 274              		.loc 1 211 1 is_stmt 0 view .LVU73
 275 0000 2DE9F043 		push	{r4, r5, r6, r7, r8, r9, lr}
 276              		.cfi_def_cfa_offset 28
 277              		.cfi_offset 4, -28
 278              		.cfi_offset 5, -24
 279              		.cfi_offset 6, -20
 280              		.cfi_offset 7, -16
 281              		.cfi_offset 8, -12
 282              		.cfi_offset 9, -8
 283              		.cfi_offset 14, -4
 284 0004 89B0     		sub	sp, sp, #36
 285              		.cfi_def_cfa_offset 64
 286 0006 1646     		mov	r6, r2
 287 0008 109F     		ldr	r7, [sp, #64]
 212:Drivers/STM32F4xx_HAL_Driver/Src/stm32f4xx_hal_i2s_ex.c **** 
 288              		.loc 1 212 3 is_stmt 1 view .LVU74
 289              	.LVL12:
 214:Drivers/STM32F4xx_HAL_Driver/Src/stm32f4xx_hal_i2s_ex.c ****   {
 290              		.loc 1 214 3 view .LVU75
 214:Drivers/STM32F4xx_HAL_Driver/Src/stm32f4xx_hal_i2s_ex.c ****   {
 291              		.loc 1 214 11 is_stmt 0 view .LVU76
 292 000a 90F84120 		ldrb	r2, [r0, #65]	@ zero_extendqisi2
 293              	.LVL13:
 214:Drivers/STM32F4xx_HAL_Driver/Src/stm32f4xx_hal_i2s_ex.c ****   {
 294              		.loc 1 214 6 view .LVU77
 295 000e 012A     		cmp	r2, #1
 296 0010 40F0A081 		bne	.L64
 297 0014 0446     		mov	r4, r0
 298 0016 5FFA82F8 		uxtb	r8, r2
 219:Drivers/STM32F4xx_HAL_Driver/Src/stm32f4xx_hal_i2s_ex.c ****   {
 299              		.loc 1 219 3 is_stmt 1 view .LVU78
 219:Drivers/STM32F4xx_HAL_Driver/Src/stm32f4xx_hal_i2s_ex.c ****   {
 300              		.loc 1 219 6 is_stmt 0 view .LVU79
 301 001a 0029     		cmp	r1, #0
 302 001c 00F09C81 		beq	.L35
 219:Drivers/STM32F4xx_HAL_Driver/Src/stm32f4xx_hal_i2s_ex.c ****   {
 303              		.loc 1 219 25 discriminator 1 view .LVU80
 304 0020 002E     		cmp	r6, #0
 305 0022 00F09981 		beq	.L35
 219:Drivers/STM32F4xx_HAL_Driver/Src/stm32f4xx_hal_i2s_ex.c ****   {
 306              		.loc 1 219 46 discriminator 2 view .LVU81
 307 0026 002B     		cmp	r3, #0
 308 0028 00F09681 		beq	.L35
 225:Drivers/STM32F4xx_HAL_Driver/Src/stm32f4xx_hal_i2s_ex.c **** 
 309              		.loc 1 225 3 is_stmt 1 view .LVU82
ARM GAS  /tmp/ccQYaWvF.s 			page 27


 225:Drivers/STM32F4xx_HAL_Driver/Src/stm32f4xx_hal_i2s_ex.c **** 
 310              		.loc 1 225 3 view .LVU83
 311 002c 90F84020 		ldrb	r2, [r0, #64]	@ zero_extendqisi2
 312 0030 012A     		cmp	r2, #1
 313 0032 00F09581 		beq	.L65
 225:Drivers/STM32F4xx_HAL_Driver/Src/stm32f4xx_hal_i2s_ex.c **** 
 314              		.loc 1 225 3 discriminator 2 view .LVU84
 315 0036 0122     		movs	r2, #1
 316 0038 80F84020 		strb	r2, [r0, #64]
 225:Drivers/STM32F4xx_HAL_Driver/Src/stm32f4xx_hal_i2s_ex.c **** 
 317              		.loc 1 225 3 view .LVU85
 227:Drivers/STM32F4xx_HAL_Driver/Src/stm32f4xx_hal_i2s_ex.c ****   /* Check the Data format: When a 16-bit data frame or a 16-bit data frame extended
 318              		.loc 1 227 3 view .LVU86
 227:Drivers/STM32F4xx_HAL_Driver/Src/stm32f4xx_hal_i2s_ex.c ****   /* Check the Data format: When a 16-bit data frame or a 16-bit data frame extended
 319              		.loc 1 227 14 is_stmt 0 view .LVU87
 320 003c 0068     		ldr	r0, [r0]
 321              	.LVL14:
 227:Drivers/STM32F4xx_HAL_Driver/Src/stm32f4xx_hal_i2s_ex.c ****   /* Check the Data format: When a 16-bit data frame or a 16-bit data frame extended
 322              		.loc 1 227 24 view .LVU88
 323 003e C269     		ldr	r2, [r0, #28]
 227:Drivers/STM32F4xx_HAL_Driver/Src/stm32f4xx_hal_i2s_ex.c ****   /* Check the Data format: When a 16-bit data frame or a 16-bit data frame extended
 324              		.loc 1 227 8 view .LVU89
 325 0040 02F00702 		and	r2, r2, #7
 326              	.LVL15:
 232:Drivers/STM32F4xx_HAL_Driver/Src/stm32f4xx_hal_i2s_ex.c ****   {
 327              		.loc 1 232 3 is_stmt 1 view .LVU90
 232:Drivers/STM32F4xx_HAL_Driver/Src/stm32f4xx_hal_i2s_ex.c ****   {
 328              		.loc 1 232 6 is_stmt 0 view .LVU91
 329 0044 032A     		cmp	r2, #3
 330 0046 06D0     		beq	.L36
 232:Drivers/STM32F4xx_HAL_Driver/Src/stm32f4xx_hal_i2s_ex.c ****   {
 331              		.loc 1 232 36 discriminator 1 view .LVU92
 332 0048 052A     		cmp	r2, #5
 333 004a 04D0     		beq	.L36
 241:Drivers/STM32F4xx_HAL_Driver/Src/stm32f4xx_hal_i2s_ex.c ****     hi2s->TxXferCount = Size;
 334              		.loc 1 241 5 is_stmt 1 view .LVU93
 241:Drivers/STM32F4xx_HAL_Driver/Src/stm32f4xx_hal_i2s_ex.c ****     hi2s->TxXferCount = Size;
 335              		.loc 1 241 23 is_stmt 0 view .LVU94
 336 004c 2385     		strh	r3, [r4, #40]	@ movhi
 242:Drivers/STM32F4xx_HAL_Driver/Src/stm32f4xx_hal_i2s_ex.c ****     hi2s->RxXferSize  = Size;
 337              		.loc 1 242 5 is_stmt 1 view .LVU95
 242:Drivers/STM32F4xx_HAL_Driver/Src/stm32f4xx_hal_i2s_ex.c ****     hi2s->RxXferSize  = Size;
 338              		.loc 1 242 23 is_stmt 0 view .LVU96
 339 004e 6385     		strh	r3, [r4, #42]	@ movhi
 243:Drivers/STM32F4xx_HAL_Driver/Src/stm32f4xx_hal_i2s_ex.c ****     hi2s->RxXferCount = Size;
 340              		.loc 1 243 5 is_stmt 1 view .LVU97
 243:Drivers/STM32F4xx_HAL_Driver/Src/stm32f4xx_hal_i2s_ex.c ****     hi2s->RxXferCount = Size;
 341              		.loc 1 243 23 is_stmt 0 view .LVU98
 342 0050 2386     		strh	r3, [r4, #48]	@ movhi
 244:Drivers/STM32F4xx_HAL_Driver/Src/stm32f4xx_hal_i2s_ex.c ****   }
 343              		.loc 1 244 5 is_stmt 1 view .LVU99
 244:Drivers/STM32F4xx_HAL_Driver/Src/stm32f4xx_hal_i2s_ex.c ****   }
 344              		.loc 1 244 23 is_stmt 0 view .LVU100
 345 0052 6386     		strh	r3, [r4, #50]	@ movhi
 346 0054 05E0     		b	.L38
 347              	.L36:
 234:Drivers/STM32F4xx_HAL_Driver/Src/stm32f4xx_hal_i2s_ex.c ****     hi2s->TxXferCount = (Size << 1U);
ARM GAS  /tmp/ccQYaWvF.s 			page 28


 348              		.loc 1 234 5 is_stmt 1 view .LVU101
 234:Drivers/STM32F4xx_HAL_Driver/Src/stm32f4xx_hal_i2s_ex.c ****     hi2s->TxXferCount = (Size << 1U);
 349              		.loc 1 234 31 is_stmt 0 view .LVU102
 350 0056 5B00     		lsls	r3, r3, #1
 351              	.LVL16:
 234:Drivers/STM32F4xx_HAL_Driver/Src/stm32f4xx_hal_i2s_ex.c ****     hi2s->TxXferCount = (Size << 1U);
 352              		.loc 1 234 31 view .LVU103
 353 0058 9BB2     		uxth	r3, r3
 234:Drivers/STM32F4xx_HAL_Driver/Src/stm32f4xx_hal_i2s_ex.c ****     hi2s->TxXferCount = (Size << 1U);
 354              		.loc 1 234 23 view .LVU104
 355 005a 2385     		strh	r3, [r4, #40]	@ movhi
 235:Drivers/STM32F4xx_HAL_Driver/Src/stm32f4xx_hal_i2s_ex.c ****     hi2s->RxXferSize  = (Size << 1U);
 356              		.loc 1 235 5 is_stmt 1 view .LVU105
 235:Drivers/STM32F4xx_HAL_Driver/Src/stm32f4xx_hal_i2s_ex.c ****     hi2s->RxXferSize  = (Size << 1U);
 357              		.loc 1 235 23 is_stmt 0 view .LVU106
 358 005c 6385     		strh	r3, [r4, #42]	@ movhi
 236:Drivers/STM32F4xx_HAL_Driver/Src/stm32f4xx_hal_i2s_ex.c ****     hi2s->RxXferCount = (Size << 1U);
 359              		.loc 1 236 5 is_stmt 1 view .LVU107
 236:Drivers/STM32F4xx_HAL_Driver/Src/stm32f4xx_hal_i2s_ex.c ****     hi2s->RxXferCount = (Size << 1U);
 360              		.loc 1 236 23 is_stmt 0 view .LVU108
 361 005e 2386     		strh	r3, [r4, #48]	@ movhi
 237:Drivers/STM32F4xx_HAL_Driver/Src/stm32f4xx_hal_i2s_ex.c ****   }
 362              		.loc 1 237 5 is_stmt 1 view .LVU109
 237:Drivers/STM32F4xx_HAL_Driver/Src/stm32f4xx_hal_i2s_ex.c ****   }
 363              		.loc 1 237 23 is_stmt 0 view .LVU110
 364 0060 6386     		strh	r3, [r4, #50]	@ movhi
 365              	.L38:
 248:Drivers/STM32F4xx_HAL_Driver/Src/stm32f4xx_hal_i2s_ex.c ****   hi2s->State = HAL_I2S_STATE_BUSY_TX_RX;
 366              		.loc 1 248 3 is_stmt 1 view .LVU111
 248:Drivers/STM32F4xx_HAL_Driver/Src/stm32f4xx_hal_i2s_ex.c ****   hi2s->State = HAL_I2S_STATE_BUSY_TX_RX;
 367              		.loc 1 248 19 is_stmt 0 view .LVU112
 368 0062 0023     		movs	r3, #0
 369 0064 6364     		str	r3, [r4, #68]
 249:Drivers/STM32F4xx_HAL_Driver/Src/stm32f4xx_hal_i2s_ex.c **** 
 370              		.loc 1 249 3 is_stmt 1 view .LVU113
 249:Drivers/STM32F4xx_HAL_Driver/Src/stm32f4xx_hal_i2s_ex.c **** 
 371              		.loc 1 249 15 is_stmt 0 view .LVU114
 372 0066 0523     		movs	r3, #5
 373 0068 84F84130 		strb	r3, [r4, #65]
 251:Drivers/STM32F4xx_HAL_Driver/Src/stm32f4xx_hal_i2s_ex.c ****   /* Check if the I2S_MODE_MASTER_TX or I2S_MODE_SLAVE_TX Mode is selected */
 374              		.loc 1 251 3 is_stmt 1 view .LVU115
 251:Drivers/STM32F4xx_HAL_Driver/Src/stm32f4xx_hal_i2s_ex.c ****   /* Check if the I2S_MODE_MASTER_TX or I2S_MODE_SLAVE_TX Mode is selected */
 375              		.loc 1 251 24 is_stmt 0 view .LVU116
 376 006c C369     		ldr	r3, [r0, #28]
 251:Drivers/STM32F4xx_HAL_Driver/Src/stm32f4xx_hal_i2s_ex.c ****   /* Check if the I2S_MODE_MASTER_TX or I2S_MODE_SLAVE_TX Mode is selected */
 377              		.loc 1 251 8 view .LVU117
 378 006e 03F44079 		and	r9, r3, #768
 379              	.LVL17:
 253:Drivers/STM32F4xx_HAL_Driver/Src/stm32f4xx_hal_i2s_ex.c ****   {
 380              		.loc 1 253 3 is_stmt 1 view .LVU118
 253:Drivers/STM32F4xx_HAL_Driver/Src/stm32f4xx_hal_i2s_ex.c ****   {
 381              		.loc 1 253 6 is_stmt 0 view .LVU119
 382 0072 B9F5007F 		cmp	r9, #512
 383 0076 03D0     		beq	.L39
 253:Drivers/STM32F4xx_HAL_Driver/Src/stm32f4xx_hal_i2s_ex.c ****   {
 384              		.loc 1 253 36 discriminator 1 view .LVU120
 385 0078 B9F1000F 		cmp	r9, #0
ARM GAS  /tmp/ccQYaWvF.s 			page 29


 386 007c 40F0B980 		bne	.L40
 387              	.L39:
 256:Drivers/STM32F4xx_HAL_Driver/Src/stm32f4xx_hal_i2s_ex.c ****     hi2s->TxXferCount--;
 388              		.loc 1 256 5 is_stmt 1 view .LVU121
 256:Drivers/STM32F4xx_HAL_Driver/Src/stm32f4xx_hal_i2s_ex.c ****     hi2s->TxXferCount--;
 389              		.loc 1 256 35 is_stmt 0 view .LVU122
 390 0080 0D46     		mov	r5, r1
 391              	.LVL18:
 256:Drivers/STM32F4xx_HAL_Driver/Src/stm32f4xx_hal_i2s_ex.c ****     hi2s->TxXferCount--;
 392              		.loc 1 256 27 view .LVU123
 393 0082 35F8023B 		ldrh	r3, [r5], #2
 394              	.LVL19:
 256:Drivers/STM32F4xx_HAL_Driver/Src/stm32f4xx_hal_i2s_ex.c ****     hi2s->TxXferCount--;
 395              		.loc 1 256 24 view .LVU124
 396 0086 C360     		str	r3, [r0, #12]
 257:Drivers/STM32F4xx_HAL_Driver/Src/stm32f4xx_hal_i2s_ex.c **** 
 397              		.loc 1 257 5 is_stmt 1 view .LVU125
 257:Drivers/STM32F4xx_HAL_Driver/Src/stm32f4xx_hal_i2s_ex.c **** 
 398              		.loc 1 257 9 is_stmt 0 view .LVU126
 399 0088 638D     		ldrh	r3, [r4, #42]
 400 008a 9BB2     		uxth	r3, r3
 257:Drivers/STM32F4xx_HAL_Driver/Src/stm32f4xx_hal_i2s_ex.c **** 
 401              		.loc 1 257 22 view .LVU127
 402 008c 013B     		subs	r3, r3, #1
 403 008e 9BB2     		uxth	r3, r3
 404 0090 6385     		strh	r3, [r4, #42]	@ movhi
 260:Drivers/STM32F4xx_HAL_Driver/Src/stm32f4xx_hal_i2s_ex.c **** 
 405              		.loc 1 260 5 is_stmt 1 view .LVU128
 406 0092 2268     		ldr	r2, [r4]
 407 0094 964B     		ldr	r3, .L98
 408 0096 9A42     		cmp	r2, r3
 409 0098 1ED0     		beq	.L82
 260:Drivers/STM32F4xx_HAL_Driver/Src/stm32f4xx_hal_i2s_ex.c **** 
 410              		.loc 1 260 5 is_stmt 0 discriminator 2 view .LVU129
 411 009a 4FF04022 		mov	r2, #1073758208
 412              	.L41:
 260:Drivers/STM32F4xx_HAL_Driver/Src/stm32f4xx_hal_i2s_ex.c **** 
 413              		.loc 1 260 5 discriminator 4 view .LVU130
 414 009e D369     		ldr	r3, [r2, #28]
 260:Drivers/STM32F4xx_HAL_Driver/Src/stm32f4xx_hal_i2s_ex.c **** 
 415              		.loc 1 260 5 discriminator 8 view .LVU131
 416 00a0 43F48063 		orr	r3, r3, #1024
 417 00a4 D361     		str	r3, [r2, #28]
 263:Drivers/STM32F4xx_HAL_Driver/Src/stm32f4xx_hal_i2s_ex.c **** 
 418              		.loc 1 263 5 is_stmt 1 view .LVU132
 419 00a6 2268     		ldr	r2, [r4]
 420 00a8 D369     		ldr	r3, [r2, #28]
 421 00aa 43F48063 		orr	r3, r3, #1024
 422 00ae D361     		str	r3, [r2, #28]
 266:Drivers/STM32F4xx_HAL_Driver/Src/stm32f4xx_hal_i2s_ex.c ****     {
 423              		.loc 1 266 5 view .LVU133
 266:Drivers/STM32F4xx_HAL_Driver/Src/stm32f4xx_hal_i2s_ex.c ****     {
 424              		.loc 1 266 14 is_stmt 0 view .LVU134
 425 00b0 2268     		ldr	r2, [r4]
 266:Drivers/STM32F4xx_HAL_Driver/Src/stm32f4xx_hal_i2s_ex.c ****     {
 426              		.loc 1 266 24 view .LVU135
 427 00b2 D369     		ldr	r3, [r2, #28]
ARM GAS  /tmp/ccQYaWvF.s 			page 30


 266:Drivers/STM32F4xx_HAL_Driver/Src/stm32f4xx_hal_i2s_ex.c ****     {
 428              		.loc 1 266 34 view .LVU136
 429 00b4 03F44073 		and	r3, r3, #768
 266:Drivers/STM32F4xx_HAL_Driver/Src/stm32f4xx_hal_i2s_ex.c ****     {
 430              		.loc 1 266 8 view .LVU137
 431 00b8 B3F5007F 		cmp	r3, #512
 432 00bc 18D1     		bne	.L50
 270:Drivers/STM32F4xx_HAL_Driver/Src/stm32f4xx_hal_i2s_ex.c ****     }
 433              		.loc 1 270 7 is_stmt 1 view .LVU138
 434              	.LBB2:
 270:Drivers/STM32F4xx_HAL_Driver/Src/stm32f4xx_hal_i2s_ex.c ****     }
 435              		.loc 1 270 7 view .LVU139
 436 00be 0023     		movs	r3, #0
 437 00c0 0293     		str	r3, [sp, #8]
 270:Drivers/STM32F4xx_HAL_Driver/Src/stm32f4xx_hal_i2s_ex.c ****     }
 438              		.loc 1 270 7 view .LVU140
 439 00c2 8B4B     		ldr	r3, .L98
 440 00c4 9A42     		cmp	r2, r3
 441 00c6 09D0     		beq	.L83
 270:Drivers/STM32F4xx_HAL_Driver/Src/stm32f4xx_hal_i2s_ex.c ****     }
 442              		.loc 1 270 7 is_stmt 0 discriminator 2 view .LVU141
 443 00c8 4FF04023 		mov	r3, #1073758208
 444              	.L43:
 270:Drivers/STM32F4xx_HAL_Driver/Src/stm32f4xx_hal_i2s_ex.c ****     }
 445              		.loc 1 270 7 discriminator 4 view .LVU142
 446 00cc DA68     		ldr	r2, [r3, #12]
 447 00ce 0292     		str	r2, [sp, #8]
 270:Drivers/STM32F4xx_HAL_Driver/Src/stm32f4xx_hal_i2s_ex.c ****     }
 448              		.loc 1 270 7 is_stmt 1 view .LVU143
 270:Drivers/STM32F4xx_HAL_Driver/Src/stm32f4xx_hal_i2s_ex.c ****     }
 449              		.loc 1 270 7 is_stmt 0 discriminator 8 view .LVU144
 450 00d0 9B68     		ldr	r3, [r3, #8]
 451 00d2 0293     		str	r3, [sp, #8]
 270:Drivers/STM32F4xx_HAL_Driver/Src/stm32f4xx_hal_i2s_ex.c ****     }
 452              		.loc 1 270 7 is_stmt 1 view .LVU145
 270:Drivers/STM32F4xx_HAL_Driver/Src/stm32f4xx_hal_i2s_ex.c ****     }
 453              		.loc 1 270 7 is_stmt 0 discriminator 8 view .LVU146
 454 00d4 029B     		ldr	r3, [sp, #8]
 455 00d6 0BE0     		b	.L50
 456              	.L82:
 270:Drivers/STM32F4xx_HAL_Driver/Src/stm32f4xx_hal_i2s_ex.c ****     }
 457              		.loc 1 270 7 discriminator 8 view .LVU147
 458              	.LBE2:
 260:Drivers/STM32F4xx_HAL_Driver/Src/stm32f4xx_hal_i2s_ex.c **** 
 459              		.loc 1 260 5 discriminator 1 view .LVU148
 460 00d8 864A     		ldr	r2, .L98+4
 461 00da E0E7     		b	.L41
 462              	.L83:
 463              	.LBB3:
 270:Drivers/STM32F4xx_HAL_Driver/Src/stm32f4xx_hal_i2s_ex.c ****     }
 464              		.loc 1 270 7 discriminator 1 view .LVU149
 465 00dc A3F58063 		sub	r3, r3, #1024
 466 00e0 F4E7     		b	.L43
 467              	.L51:
 270:Drivers/STM32F4xx_HAL_Driver/Src/stm32f4xx_hal_i2s_ex.c ****     }
 468              		.loc 1 270 7 discriminator 1 view .LVU150
 469              	.LBE3:
ARM GAS  /tmp/ccQYaWvF.s 			page 31


 275:Drivers/STM32F4xx_HAL_Driver/Src/stm32f4xx_hal_i2s_ex.c ****       {
 470              		.loc 1 275 7 is_stmt 1 view .LVU151
 275:Drivers/STM32F4xx_HAL_Driver/Src/stm32f4xx_hal_i2s_ex.c ****       {
 471              		.loc 1 275 15 is_stmt 0 view .LVU152
 472 00e2 638D     		ldrh	r3, [r4, #42]
 473 00e4 9BB2     		uxth	r3, r3
 275:Drivers/STM32F4xx_HAL_Driver/Src/stm32f4xx_hal_i2s_ex.c ****       {
 474              		.loc 1 275 10 view .LVU153
 475 00e6 C3B9     		cbnz	r3, .L84
 476              	.L44:
 302:Drivers/STM32F4xx_HAL_Driver/Src/stm32f4xx_hal_i2s_ex.c ****       {
 477              		.loc 1 302 7 is_stmt 1 view .LVU154
 302:Drivers/STM32F4xx_HAL_Driver/Src/stm32f4xx_hal_i2s_ex.c ****       {
 478              		.loc 1 302 15 is_stmt 0 view .LVU155
 479 00e8 638E     		ldrh	r3, [r4, #50]
 480 00ea 9BB2     		uxth	r3, r3
 302:Drivers/STM32F4xx_HAL_Driver/Src/stm32f4xx_hal_i2s_ex.c ****       {
 481              		.loc 1 302 10 view .LVU156
 482 00ec 002B     		cmp	r3, #0
 483 00ee 43D1     		bne	.L85
 484              	.L50:
 273:Drivers/STM32F4xx_HAL_Driver/Src/stm32f4xx_hal_i2s_ex.c ****     {
 485              		.loc 1 273 37 is_stmt 1 view .LVU157
 273:Drivers/STM32F4xx_HAL_Driver/Src/stm32f4xx_hal_i2s_ex.c ****     {
 486              		.loc 1 273 17 is_stmt 0 view .LVU158
 487 00f0 638E     		ldrh	r3, [r4, #50]
 488 00f2 9BB2     		uxth	r3, r3
 273:Drivers/STM32F4xx_HAL_Driver/Src/stm32f4xx_hal_i2s_ex.c ****     {
 489              		.loc 1 273 37 view .LVU159
 490 00f4 002B     		cmp	r3, #0
 491 00f6 F4D1     		bne	.L51
 273:Drivers/STM32F4xx_HAL_Driver/Src/stm32f4xx_hal_i2s_ex.c ****     {
 492              		.loc 1 273 45 discriminator 1 view .LVU160
 493 00f8 638D     		ldrh	r3, [r4, #42]
 494 00fa 9BB2     		uxth	r3, r3
 273:Drivers/STM32F4xx_HAL_Driver/Src/stm32f4xx_hal_i2s_ex.c ****     {
 495              		.loc 1 273 37 discriminator 1 view .LVU161
 496 00fc 002B     		cmp	r3, #0
 497 00fe F0D1     		bne	.L51
 498              	.L52:
 411:Drivers/STM32F4xx_HAL_Driver/Src/stm32f4xx_hal_i2s_ex.c ****   __HAL_UNLOCK(hi2s);
 499              		.loc 1 411 3 is_stmt 1 view .LVU162
 411:Drivers/STM32F4xx_HAL_Driver/Src/stm32f4xx_hal_i2s_ex.c ****   __HAL_UNLOCK(hi2s);
 500              		.loc 1 411 15 is_stmt 0 view .LVU163
 501 0100 0123     		movs	r3, #1
 502 0102 84F84130 		strb	r3, [r4, #65]
 412:Drivers/STM32F4xx_HAL_Driver/Src/stm32f4xx_hal_i2s_ex.c **** 
 503              		.loc 1 412 3 is_stmt 1 view .LVU164
 412:Drivers/STM32F4xx_HAL_Driver/Src/stm32f4xx_hal_i2s_ex.c **** 
 504              		.loc 1 412 3 view .LVU165
 505 0106 0023     		movs	r3, #0
 506 0108 84F84030 		strb	r3, [r4, #64]
 412:Drivers/STM32F4xx_HAL_Driver/Src/stm32f4xx_hal_i2s_ex.c **** 
 507              		.loc 1 412 3 view .LVU166
 414:Drivers/STM32F4xx_HAL_Driver/Src/stm32f4xx_hal_i2s_ex.c ****   {
 508              		.loc 1 414 3 view .LVU167
 414:Drivers/STM32F4xx_HAL_Driver/Src/stm32f4xx_hal_i2s_ex.c ****   {
ARM GAS  /tmp/ccQYaWvF.s 			page 32


 509              		.loc 1 414 11 is_stmt 0 view .LVU168
 510 010c 636C     		ldr	r3, [r4, #68]
 414:Drivers/STM32F4xx_HAL_Driver/Src/stm32f4xx_hal_i2s_ex.c ****   {
 511              		.loc 1 414 6 view .LVU169
 512 010e 002B     		cmp	r3, #0
 513 0110 40F02281 		bne	.L35
 420:Drivers/STM32F4xx_HAL_Driver/Src/stm32f4xx_hal_i2s_ex.c ****   }
 514              		.loc 1 420 12 view .LVU170
 515 0114 4FF00008 		mov	r8, #0
 516 0118 1EE1     		b	.L35
 517              	.L84:
 278:Drivers/STM32F4xx_HAL_Driver/Src/stm32f4xx_hal_i2s_ex.c ****         {
 518              		.loc 1 278 9 is_stmt 1 view .LVU171
 278:Drivers/STM32F4xx_HAL_Driver/Src/stm32f4xx_hal_i2s_ex.c ****         {
 519              		.loc 1 278 13 is_stmt 0 view .LVU172
 520 011a 0023     		movs	r3, #0
 521 011c 0093     		str	r3, [sp]
 522 011e 3B46     		mov	r3, r7
 523 0120 0122     		movs	r2, #1
 524 0122 0221     		movs	r1, #2
 525 0124 2046     		mov	r0, r4
 526 0126 FFF7FEFF 		bl	I2SEx_FullDuplexWaitFlagStateUntilTimeout
 527              	.LVL20:
 278:Drivers/STM32F4xx_HAL_Driver/Src/stm32f4xx_hal_i2s_ex.c ****         {
 528              		.loc 1 278 12 discriminator 1 view .LVU173
 529 012a D0B9     		cbnz	r0, .L86
 289:Drivers/STM32F4xx_HAL_Driver/Src/stm32f4xx_hal_i2s_ex.c ****         hi2s->TxXferCount--;
 530              		.loc 1 289 9 is_stmt 1 view .LVU174
 531              	.LVL21:
 289:Drivers/STM32F4xx_HAL_Driver/Src/stm32f4xx_hal_i2s_ex.c ****         hi2s->TxXferCount--;
 532              		.loc 1 289 13 is_stmt 0 view .LVU175
 533 012c 2368     		ldr	r3, [r4]
 289:Drivers/STM32F4xx_HAL_Driver/Src/stm32f4xx_hal_i2s_ex.c ****         hi2s->TxXferCount--;
 534              		.loc 1 289 31 view .LVU176
 535 012e 35F8022B 		ldrh	r2, [r5], #2
 536              	.LVL22:
 289:Drivers/STM32F4xx_HAL_Driver/Src/stm32f4xx_hal_i2s_ex.c ****         hi2s->TxXferCount--;
 537              		.loc 1 289 28 view .LVU177
 538 0132 DA60     		str	r2, [r3, #12]
 290:Drivers/STM32F4xx_HAL_Driver/Src/stm32f4xx_hal_i2s_ex.c **** 
 539              		.loc 1 290 9 is_stmt 1 view .LVU178
 290:Drivers/STM32F4xx_HAL_Driver/Src/stm32f4xx_hal_i2s_ex.c **** 
 540              		.loc 1 290 13 is_stmt 0 view .LVU179
 541 0134 638D     		ldrh	r3, [r4, #42]
 542 0136 9BB2     		uxth	r3, r3
 290:Drivers/STM32F4xx_HAL_Driver/Src/stm32f4xx_hal_i2s_ex.c **** 
 543              		.loc 1 290 26 view .LVU180
 544 0138 013B     		subs	r3, r3, #1
 545 013a 9BB2     		uxth	r3, r3
 546 013c 6385     		strh	r3, [r4, #42]	@ movhi
 293:Drivers/STM32F4xx_HAL_Driver/Src/stm32f4xx_hal_i2s_ex.c ****         {
 547              		.loc 1 293 9 is_stmt 1 view .LVU181
 293:Drivers/STM32F4xx_HAL_Driver/Src/stm32f4xx_hal_i2s_ex.c ****         {
 548              		.loc 1 293 14 is_stmt 0 view .LVU182
 549 013e 2368     		ldr	r3, [r4]
 550 0140 9A68     		ldr	r2, [r3, #8]
 293:Drivers/STM32F4xx_HAL_Driver/Src/stm32f4xx_hal_i2s_ex.c ****         {
ARM GAS  /tmp/ccQYaWvF.s 			page 33


 551              		.loc 1 293 12 view .LVU183
 552 0142 12F0080F 		tst	r2, #8
 553 0146 CFD0     		beq	.L44
 293:Drivers/STM32F4xx_HAL_Driver/Src/stm32f4xx_hal_i2s_ex.c ****         {
 554              		.loc 1 293 61 discriminator 1 view .LVU184
 555 0148 B9F1000F 		cmp	r9, #0
 556 014c CCD1     		bne	.L44
 296:Drivers/STM32F4xx_HAL_Driver/Src/stm32f4xx_hal_i2s_ex.c **** 
 557              		.loc 1 296 11 is_stmt 1 view .LVU185
 558              	.LBB4:
 296:Drivers/STM32F4xx_HAL_Driver/Src/stm32f4xx_hal_i2s_ex.c **** 
 559              		.loc 1 296 11 view .LVU186
 560 014e 0022     		movs	r2, #0
 561 0150 0392     		str	r2, [sp, #12]
 296:Drivers/STM32F4xx_HAL_Driver/Src/stm32f4xx_hal_i2s_ex.c **** 
 562              		.loc 1 296 11 view .LVU187
 563 0152 9B68     		ldr	r3, [r3, #8]
 564 0154 0393     		str	r3, [sp, #12]
 296:Drivers/STM32F4xx_HAL_Driver/Src/stm32f4xx_hal_i2s_ex.c **** 
 565              		.loc 1 296 11 view .LVU188
 566 0156 039B     		ldr	r3, [sp, #12]
 567              	.LBE4:
 296:Drivers/STM32F4xx_HAL_Driver/Src/stm32f4xx_hal_i2s_ex.c **** 
 568              		.loc 1 296 11 view .LVU189
 299:Drivers/STM32F4xx_HAL_Driver/Src/stm32f4xx_hal_i2s_ex.c ****         }
 569              		.loc 1 299 11 view .LVU190
 570 0158 636C     		ldr	r3, [r4, #68]
 571 015a 43F00403 		orr	r3, r3, #4
 572 015e 6364     		str	r3, [r4, #68]
 573 0160 C2E7     		b	.L44
 574              	.L86:
 281:Drivers/STM32F4xx_HAL_Driver/Src/stm32f4xx_hal_i2s_ex.c ****           hi2s->State = HAL_I2S_STATE_READY;
 575              		.loc 1 281 11 view .LVU191
 576 0162 636C     		ldr	r3, [r4, #68]
 577 0164 43F00103 		orr	r3, r3, #1
 578 0168 6364     		str	r3, [r4, #68]
 282:Drivers/STM32F4xx_HAL_Driver/Src/stm32f4xx_hal_i2s_ex.c **** 
 579              		.loc 1 282 11 view .LVU192
 282:Drivers/STM32F4xx_HAL_Driver/Src/stm32f4xx_hal_i2s_ex.c **** 
 580              		.loc 1 282 23 is_stmt 0 view .LVU193
 581 016a 0123     		movs	r3, #1
 582 016c 84F84130 		strb	r3, [r4, #65]
 285:Drivers/STM32F4xx_HAL_Driver/Src/stm32f4xx_hal_i2s_ex.c ****           return HAL_ERROR;
 583              		.loc 1 285 11 is_stmt 1 view .LVU194
 285:Drivers/STM32F4xx_HAL_Driver/Src/stm32f4xx_hal_i2s_ex.c ****           return HAL_ERROR;
 584              		.loc 1 285 11 view .LVU195
 585 0170 0023     		movs	r3, #0
 586 0172 84F84030 		strb	r3, [r4, #64]
 285:Drivers/STM32F4xx_HAL_Driver/Src/stm32f4xx_hal_i2s_ex.c ****           return HAL_ERROR;
 587              		.loc 1 285 11 view .LVU196
 286:Drivers/STM32F4xx_HAL_Driver/Src/stm32f4xx_hal_i2s_ex.c ****         }
 588              		.loc 1 286 11 view .LVU197
 286:Drivers/STM32F4xx_HAL_Driver/Src/stm32f4xx_hal_i2s_ex.c ****         }
 589              		.loc 1 286 18 is_stmt 0 view .LVU198
 590 0176 EFE0     		b	.L35
 591              	.L85:
 305:Drivers/STM32F4xx_HAL_Driver/Src/stm32f4xx_hal_i2s_ex.c ****         {
ARM GAS  /tmp/ccQYaWvF.s 			page 34


 592              		.loc 1 305 9 is_stmt 1 view .LVU199
 305:Drivers/STM32F4xx_HAL_Driver/Src/stm32f4xx_hal_i2s_ex.c ****         {
 593              		.loc 1 305 13 is_stmt 0 view .LVU200
 594 0178 0121     		movs	r1, #1
 595 017a 0091     		str	r1, [sp]
 596 017c 3B46     		mov	r3, r7
 597 017e 0A46     		mov	r2, r1
 598 0180 2046     		mov	r0, r4
 599 0182 FFF7FEFF 		bl	I2SEx_FullDuplexWaitFlagStateUntilTimeout
 600              	.LVL23:
 305:Drivers/STM32F4xx_HAL_Driver/Src/stm32f4xx_hal_i2s_ex.c ****         {
 601              		.loc 1 305 12 discriminator 1 view .LVU201
 602 0186 18BB     		cbnz	r0, .L87
 316:Drivers/STM32F4xx_HAL_Driver/Src/stm32f4xx_hal_i2s_ex.c ****         hi2s->RxXferCount--;
 603              		.loc 1 316 9 is_stmt 1 view .LVU202
 316:Drivers/STM32F4xx_HAL_Driver/Src/stm32f4xx_hal_i2s_ex.c ****         hi2s->RxXferCount--;
 604              		.loc 1 316 24 is_stmt 0 view .LVU203
 605 0188 2268     		ldr	r2, [r4]
 606 018a 594B     		ldr	r3, .L98
 607 018c 9A42     		cmp	r2, r3
 608 018e 2AD0     		beq	.L88
 316:Drivers/STM32F4xx_HAL_Driver/Src/stm32f4xx_hal_i2s_ex.c ****         hi2s->RxXferCount--;
 609              		.loc 1 316 24 discriminator 2 view .LVU204
 610 0190 4FF04023 		mov	r3, #1073758208
 611              	.L48:
 316:Drivers/STM32F4xx_HAL_Driver/Src/stm32f4xx_hal_i2s_ex.c ****         hi2s->RxXferCount--;
 612              		.loc 1 316 47 discriminator 4 view .LVU205
 613 0194 DB68     		ldr	r3, [r3, #12]
 614              	.LVL24:
 316:Drivers/STM32F4xx_HAL_Driver/Src/stm32f4xx_hal_i2s_ex.c ****         hi2s->RxXferCount--;
 615              		.loc 1 316 22 discriminator 4 view .LVU206
 616 0196 26F8023B 		strh	r3, [r6], #2	@ movhi
 617              	.LVL25:
 317:Drivers/STM32F4xx_HAL_Driver/Src/stm32f4xx_hal_i2s_ex.c **** 
 618              		.loc 1 317 9 is_stmt 1 view .LVU207
 317:Drivers/STM32F4xx_HAL_Driver/Src/stm32f4xx_hal_i2s_ex.c **** 
 619              		.loc 1 317 13 is_stmt 0 view .LVU208
 620 019a 638E     		ldrh	r3, [r4, #50]
 621 019c 9BB2     		uxth	r3, r3
 317:Drivers/STM32F4xx_HAL_Driver/Src/stm32f4xx_hal_i2s_ex.c **** 
 622              		.loc 1 317 26 view .LVU209
 623 019e 013B     		subs	r3, r3, #1
 624 01a0 9BB2     		uxth	r3, r3
 625 01a2 6386     		strh	r3, [r4, #50]	@ movhi
 320:Drivers/STM32F4xx_HAL_Driver/Src/stm32f4xx_hal_i2s_ex.c ****         {
 626              		.loc 1 320 9 is_stmt 1 view .LVU210
 320:Drivers/STM32F4xx_HAL_Driver/Src/stm32f4xx_hal_i2s_ex.c ****         {
 627              		.loc 1 320 13 is_stmt 0 view .LVU211
 628 01a4 2368     		ldr	r3, [r4]
 629 01a6 524A     		ldr	r2, .L98
 630 01a8 9342     		cmp	r3, r2
 631 01aa 1FD0     		beq	.L89
 320:Drivers/STM32F4xx_HAL_Driver/Src/stm32f4xx_hal_i2s_ex.c ****         {
 632              		.loc 1 320 13 discriminator 2 view .LVU212
 633 01ac 4FF04022 		mov	r2, #1073758208
 634              	.L49:
 320:Drivers/STM32F4xx_HAL_Driver/Src/stm32f4xx_hal_i2s_ex.c ****         {
ARM GAS  /tmp/ccQYaWvF.s 			page 35


 635              		.loc 1 320 13 discriminator 4 view .LVU213
 636 01b0 9268     		ldr	r2, [r2, #8]
 320:Drivers/STM32F4xx_HAL_Driver/Src/stm32f4xx_hal_i2s_ex.c ****         {
 637              		.loc 1 320 12 discriminator 4 view .LVU214
 638 01b2 12F0400F 		tst	r2, #64
 639 01b6 9BD0     		beq	.L50
 323:Drivers/STM32F4xx_HAL_Driver/Src/stm32f4xx_hal_i2s_ex.c **** 
 640              		.loc 1 323 11 is_stmt 1 view .LVU215
 641              	.LBB5:
 323:Drivers/STM32F4xx_HAL_Driver/Src/stm32f4xx_hal_i2s_ex.c **** 
 642              		.loc 1 323 11 view .LVU216
 643 01b8 0022     		movs	r2, #0
 644 01ba 0492     		str	r2, [sp, #16]
 323:Drivers/STM32F4xx_HAL_Driver/Src/stm32f4xx_hal_i2s_ex.c **** 
 645              		.loc 1 323 11 view .LVU217
 646 01bc DA68     		ldr	r2, [r3, #12]
 647 01be 0492     		str	r2, [sp, #16]
 323:Drivers/STM32F4xx_HAL_Driver/Src/stm32f4xx_hal_i2s_ex.c **** 
 648              		.loc 1 323 11 view .LVU218
 649 01c0 9B68     		ldr	r3, [r3, #8]
 650 01c2 0493     		str	r3, [sp, #16]
 323:Drivers/STM32F4xx_HAL_Driver/Src/stm32f4xx_hal_i2s_ex.c **** 
 651              		.loc 1 323 11 view .LVU219
 652 01c4 049B     		ldr	r3, [sp, #16]
 653              	.LBE5:
 323:Drivers/STM32F4xx_HAL_Driver/Src/stm32f4xx_hal_i2s_ex.c **** 
 654              		.loc 1 323 11 view .LVU220
 326:Drivers/STM32F4xx_HAL_Driver/Src/stm32f4xx_hal_i2s_ex.c ****         }
 655              		.loc 1 326 11 view .LVU221
 656 01c6 636C     		ldr	r3, [r4, #68]
 657 01c8 43F00203 		orr	r3, r3, #2
 658 01cc 6364     		str	r3, [r4, #68]
 659 01ce 8FE7     		b	.L50
 660              	.L87:
 308:Drivers/STM32F4xx_HAL_Driver/Src/stm32f4xx_hal_i2s_ex.c ****           hi2s->State = HAL_I2S_STATE_READY;
 661              		.loc 1 308 11 view .LVU222
 662 01d0 636C     		ldr	r3, [r4, #68]
 663 01d2 43F00103 		orr	r3, r3, #1
 664 01d6 6364     		str	r3, [r4, #68]
 309:Drivers/STM32F4xx_HAL_Driver/Src/stm32f4xx_hal_i2s_ex.c **** 
 665              		.loc 1 309 11 view .LVU223
 309:Drivers/STM32F4xx_HAL_Driver/Src/stm32f4xx_hal_i2s_ex.c **** 
 666              		.loc 1 309 23 is_stmt 0 view .LVU224
 667 01d8 0123     		movs	r3, #1
 668 01da 84F84130 		strb	r3, [r4, #65]
 312:Drivers/STM32F4xx_HAL_Driver/Src/stm32f4xx_hal_i2s_ex.c ****           return HAL_ERROR;
 669              		.loc 1 312 11 is_stmt 1 view .LVU225
 312:Drivers/STM32F4xx_HAL_Driver/Src/stm32f4xx_hal_i2s_ex.c ****           return HAL_ERROR;
 670              		.loc 1 312 11 view .LVU226
 671 01de 0023     		movs	r3, #0
 672 01e0 84F84030 		strb	r3, [r4, #64]
 312:Drivers/STM32F4xx_HAL_Driver/Src/stm32f4xx_hal_i2s_ex.c ****           return HAL_ERROR;
 673              		.loc 1 312 11 view .LVU227
 313:Drivers/STM32F4xx_HAL_Driver/Src/stm32f4xx_hal_i2s_ex.c ****         }
 674              		.loc 1 313 11 view .LVU228
 313:Drivers/STM32F4xx_HAL_Driver/Src/stm32f4xx_hal_i2s_ex.c ****         }
 675              		.loc 1 313 18 is_stmt 0 view .LVU229
ARM GAS  /tmp/ccQYaWvF.s 			page 36


 676 01e4 B8E0     		b	.L35
 677              	.L88:
 316:Drivers/STM32F4xx_HAL_Driver/Src/stm32f4xx_hal_i2s_ex.c ****         hi2s->RxXferCount--;
 678              		.loc 1 316 24 discriminator 1 view .LVU230
 679 01e6 A3F58063 		sub	r3, r3, #1024
 680 01ea D3E7     		b	.L48
 681              	.L89:
 320:Drivers/STM32F4xx_HAL_Driver/Src/stm32f4xx_hal_i2s_ex.c ****         {
 682              		.loc 1 320 13 discriminator 1 view .LVU231
 683 01ec A2F58062 		sub	r2, r2, #1024
 684 01f0 DEE7     		b	.L49
 685              	.LVL26:
 686              	.L40:
 335:Drivers/STM32F4xx_HAL_Driver/Src/stm32f4xx_hal_i2s_ex.c ****     hi2s->TxXferCount--;
 687              		.loc 1 335 5 is_stmt 1 view .LVU232
 335:Drivers/STM32F4xx_HAL_Driver/Src/stm32f4xx_hal_i2s_ex.c ****     hi2s->TxXferCount--;
 688              		.loc 1 335 44 is_stmt 0 view .LVU233
 689 01f2 0D46     		mov	r5, r1
 690              	.LVL27:
 335:Drivers/STM32F4xx_HAL_Driver/Src/stm32f4xx_hal_i2s_ex.c ****     hi2s->TxXferCount--;
 691              		.loc 1 335 36 view .LVU234
 692 01f4 35F8022B 		ldrh	r2, [r5], #2
 693              	.LVL28:
 335:Drivers/STM32F4xx_HAL_Driver/Src/stm32f4xx_hal_i2s_ex.c ****     hi2s->TxXferCount--;
 694              		.loc 1 335 5 view .LVU235
 695 01f8 3D4B     		ldr	r3, .L98
 696 01fa 9842     		cmp	r0, r3
 697 01fc 25D0     		beq	.L90
 335:Drivers/STM32F4xx_HAL_Driver/Src/stm32f4xx_hal_i2s_ex.c ****     hi2s->TxXferCount--;
 698              		.loc 1 335 5 discriminator 2 view .LVU236
 699 01fe 4FF04023 		mov	r3, #1073758208
 700              	.L53:
 335:Drivers/STM32F4xx_HAL_Driver/Src/stm32f4xx_hal_i2s_ex.c ****     hi2s->TxXferCount--;
 701              		.loc 1 335 33 discriminator 4 view .LVU237
 702 0202 DA60     		str	r2, [r3, #12]
 336:Drivers/STM32F4xx_HAL_Driver/Src/stm32f4xx_hal_i2s_ex.c **** 
 703              		.loc 1 336 5 is_stmt 1 view .LVU238
 336:Drivers/STM32F4xx_HAL_Driver/Src/stm32f4xx_hal_i2s_ex.c **** 
 704              		.loc 1 336 9 is_stmt 0 view .LVU239
 705 0204 638D     		ldrh	r3, [r4, #42]
 706 0206 9BB2     		uxth	r3, r3
 336:Drivers/STM32F4xx_HAL_Driver/Src/stm32f4xx_hal_i2s_ex.c **** 
 707              		.loc 1 336 22 view .LVU240
 708 0208 013B     		subs	r3, r3, #1
 709 020a 9BB2     		uxth	r3, r3
 710 020c 6385     		strh	r3, [r4, #42]	@ movhi
 339:Drivers/STM32F4xx_HAL_Driver/Src/stm32f4xx_hal_i2s_ex.c **** 
 711              		.loc 1 339 5 is_stmt 1 view .LVU241
 712 020e 2268     		ldr	r2, [r4]
 713 0210 374B     		ldr	r3, .L98
 714 0212 9A42     		cmp	r2, r3
 715 0214 1CD0     		beq	.L91
 339:Drivers/STM32F4xx_HAL_Driver/Src/stm32f4xx_hal_i2s_ex.c **** 
 716              		.loc 1 339 5 is_stmt 0 discriminator 2 view .LVU242
 717 0216 4FF04022 		mov	r2, #1073758208
 718              	.L54:
 339:Drivers/STM32F4xx_HAL_Driver/Src/stm32f4xx_hal_i2s_ex.c **** 
ARM GAS  /tmp/ccQYaWvF.s 			page 37


 719              		.loc 1 339 5 discriminator 4 view .LVU243
 720 021a D369     		ldr	r3, [r2, #28]
 339:Drivers/STM32F4xx_HAL_Driver/Src/stm32f4xx_hal_i2s_ex.c **** 
 721              		.loc 1 339 5 discriminator 8 view .LVU244
 722 021c 43F48063 		orr	r3, r3, #1024
 723 0220 D361     		str	r3, [r2, #28]
 342:Drivers/STM32F4xx_HAL_Driver/Src/stm32f4xx_hal_i2s_ex.c **** 
 724              		.loc 1 342 5 is_stmt 1 view .LVU245
 725 0222 2268     		ldr	r2, [r4]
 726 0224 D369     		ldr	r3, [r2, #28]
 727 0226 43F48063 		orr	r3, r3, #1024
 728 022a D361     		str	r3, [r2, #28]
 345:Drivers/STM32F4xx_HAL_Driver/Src/stm32f4xx_hal_i2s_ex.c ****     {
 729              		.loc 1 345 5 view .LVU246
 345:Drivers/STM32F4xx_HAL_Driver/Src/stm32f4xx_hal_i2s_ex.c ****     {
 730              		.loc 1 345 14 is_stmt 0 view .LVU247
 731 022c 2268     		ldr	r2, [r4]
 345:Drivers/STM32F4xx_HAL_Driver/Src/stm32f4xx_hal_i2s_ex.c ****     {
 732              		.loc 1 345 24 view .LVU248
 733 022e D369     		ldr	r3, [r2, #28]
 345:Drivers/STM32F4xx_HAL_Driver/Src/stm32f4xx_hal_i2s_ex.c ****     {
 734              		.loc 1 345 34 view .LVU249
 735 0230 03F44073 		and	r3, r3, #768
 345:Drivers/STM32F4xx_HAL_Driver/Src/stm32f4xx_hal_i2s_ex.c ****     {
 736              		.loc 1 345 8 view .LVU250
 737 0234 B3F5407F 		cmp	r3, #768
 738 0238 13D1     		bne	.L62
 349:Drivers/STM32F4xx_HAL_Driver/Src/stm32f4xx_hal_i2s_ex.c ****     }
 739              		.loc 1 349 7 is_stmt 1 view .LVU251
 740              	.LBB6:
 349:Drivers/STM32F4xx_HAL_Driver/Src/stm32f4xx_hal_i2s_ex.c ****     }
 741              		.loc 1 349 7 view .LVU252
 742 023a 0023     		movs	r3, #0
 743 023c 0593     		str	r3, [sp, #20]
 349:Drivers/STM32F4xx_HAL_Driver/Src/stm32f4xx_hal_i2s_ex.c ****     }
 744              		.loc 1 349 7 view .LVU253
 745 023e D368     		ldr	r3, [r2, #12]
 746 0240 0593     		str	r3, [sp, #20]
 349:Drivers/STM32F4xx_HAL_Driver/Src/stm32f4xx_hal_i2s_ex.c ****     }
 747              		.loc 1 349 7 view .LVU254
 748 0242 9368     		ldr	r3, [r2, #8]
 749 0244 0593     		str	r3, [sp, #20]
 349:Drivers/STM32F4xx_HAL_Driver/Src/stm32f4xx_hal_i2s_ex.c ****     }
 750              		.loc 1 349 7 view .LVU255
 751 0246 059B     		ldr	r3, [sp, #20]
 752 0248 0BE0     		b	.L62
 753              	.L90:
 349:Drivers/STM32F4xx_HAL_Driver/Src/stm32f4xx_hal_i2s_ex.c ****     }
 754              		.loc 1 349 7 is_stmt 0 view .LVU256
 755              	.LBE6:
 335:Drivers/STM32F4xx_HAL_Driver/Src/stm32f4xx_hal_i2s_ex.c ****     hi2s->TxXferCount--;
 756              		.loc 1 335 5 discriminator 1 view .LVU257
 757 024a A3F58063 		sub	r3, r3, #1024
 758 024e D8E7     		b	.L53
 759              	.L91:
 339:Drivers/STM32F4xx_HAL_Driver/Src/stm32f4xx_hal_i2s_ex.c **** 
 760              		.loc 1 339 5 discriminator 1 view .LVU258
ARM GAS  /tmp/ccQYaWvF.s 			page 38


 761 0250 284A     		ldr	r2, .L98+4
 762 0252 E2E7     		b	.L54
 763              	.L63:
 354:Drivers/STM32F4xx_HAL_Driver/Src/stm32f4xx_hal_i2s_ex.c ****       {
 764              		.loc 1 354 7 is_stmt 1 view .LVU259
 354:Drivers/STM32F4xx_HAL_Driver/Src/stm32f4xx_hal_i2s_ex.c ****       {
 765              		.loc 1 354 15 is_stmt 0 view .LVU260
 766 0254 638D     		ldrh	r3, [r4, #42]
 767 0256 9BB2     		uxth	r3, r3
 354:Drivers/STM32F4xx_HAL_Driver/Src/stm32f4xx_hal_i2s_ex.c ****       {
 768              		.loc 1 354 10 view .LVU261
 769 0258 63B9     		cbnz	r3, .L92
 770              	.L56:
 381:Drivers/STM32F4xx_HAL_Driver/Src/stm32f4xx_hal_i2s_ex.c ****       {
 771              		.loc 1 381 7 is_stmt 1 view .LVU262
 381:Drivers/STM32F4xx_HAL_Driver/Src/stm32f4xx_hal_i2s_ex.c ****       {
 772              		.loc 1 381 15 is_stmt 0 view .LVU263
 773 025a 638E     		ldrh	r3, [r4, #50]
 774 025c 9BB2     		uxth	r3, r3
 381:Drivers/STM32F4xx_HAL_Driver/Src/stm32f4xx_hal_i2s_ex.c ****       {
 775              		.loc 1 381 10 view .LVU264
 776 025e 002B     		cmp	r3, #0
 777 0260 4AD1     		bne	.L93
 778              	.L62:
 352:Drivers/STM32F4xx_HAL_Driver/Src/stm32f4xx_hal_i2s_ex.c ****     {
 779              		.loc 1 352 37 is_stmt 1 view .LVU265
 352:Drivers/STM32F4xx_HAL_Driver/Src/stm32f4xx_hal_i2s_ex.c ****     {
 780              		.loc 1 352 17 is_stmt 0 view .LVU266
 781 0262 638E     		ldrh	r3, [r4, #50]
 782 0264 9BB2     		uxth	r3, r3
 352:Drivers/STM32F4xx_HAL_Driver/Src/stm32f4xx_hal_i2s_ex.c ****     {
 783              		.loc 1 352 37 view .LVU267
 784 0266 002B     		cmp	r3, #0
 785 0268 F4D1     		bne	.L63
 352:Drivers/STM32F4xx_HAL_Driver/Src/stm32f4xx_hal_i2s_ex.c ****     {
 786              		.loc 1 352 45 discriminator 1 view .LVU268
 787 026a 638D     		ldrh	r3, [r4, #42]
 788 026c 9BB2     		uxth	r3, r3
 352:Drivers/STM32F4xx_HAL_Driver/Src/stm32f4xx_hal_i2s_ex.c ****     {
 789              		.loc 1 352 37 discriminator 1 view .LVU269
 790 026e 002B     		cmp	r3, #0
 791 0270 F0D1     		bne	.L63
 792 0272 45E7     		b	.L52
 793              	.L92:
 357:Drivers/STM32F4xx_HAL_Driver/Src/stm32f4xx_hal_i2s_ex.c ****         {
 794              		.loc 1 357 9 is_stmt 1 view .LVU270
 357:Drivers/STM32F4xx_HAL_Driver/Src/stm32f4xx_hal_i2s_ex.c ****         {
 795              		.loc 1 357 13 is_stmt 0 view .LVU271
 796 0274 0122     		movs	r2, #1
 797 0276 0092     		str	r2, [sp]
 798 0278 3B46     		mov	r3, r7
 799 027a 0221     		movs	r1, #2
 800 027c 2046     		mov	r0, r4
 801 027e FFF7FEFF 		bl	I2SEx_FullDuplexWaitFlagStateUntilTimeout
 802              	.LVL29:
 357:Drivers/STM32F4xx_HAL_Driver/Src/stm32f4xx_hal_i2s_ex.c ****         {
 803              		.loc 1 357 12 discriminator 1 view .LVU272
ARM GAS  /tmp/ccQYaWvF.s 			page 39


 804 0282 20BB     		cbnz	r0, .L94
 368:Drivers/STM32F4xx_HAL_Driver/Src/stm32f4xx_hal_i2s_ex.c ****         hi2s->TxXferCount--;
 805              		.loc 1 368 9 is_stmt 1 view .LVU273
 806              	.LVL30:
 368:Drivers/STM32F4xx_HAL_Driver/Src/stm32f4xx_hal_i2s_ex.c ****         hi2s->TxXferCount--;
 807              		.loc 1 368 40 is_stmt 0 view .LVU274
 808 0284 35F8022B 		ldrh	r2, [r5], #2
 809              	.LVL31:
 368:Drivers/STM32F4xx_HAL_Driver/Src/stm32f4xx_hal_i2s_ex.c ****         hi2s->TxXferCount--;
 810              		.loc 1 368 9 view .LVU275
 811 0288 2168     		ldr	r1, [r4]
 812 028a 194B     		ldr	r3, .L98
 813 028c 9942     		cmp	r1, r3
 814 028e 29D0     		beq	.L95
 368:Drivers/STM32F4xx_HAL_Driver/Src/stm32f4xx_hal_i2s_ex.c ****         hi2s->TxXferCount--;
 815              		.loc 1 368 9 discriminator 2 view .LVU276
 816 0290 4FF04023 		mov	r3, #1073758208
 817              	.L58:
 368:Drivers/STM32F4xx_HAL_Driver/Src/stm32f4xx_hal_i2s_ex.c ****         hi2s->TxXferCount--;
 818              		.loc 1 368 37 discriminator 4 view .LVU277
 819 0294 DA60     		str	r2, [r3, #12]
 369:Drivers/STM32F4xx_HAL_Driver/Src/stm32f4xx_hal_i2s_ex.c **** 
 820              		.loc 1 369 9 is_stmt 1 view .LVU278
 369:Drivers/STM32F4xx_HAL_Driver/Src/stm32f4xx_hal_i2s_ex.c **** 
 821              		.loc 1 369 13 is_stmt 0 view .LVU279
 822 0296 638D     		ldrh	r3, [r4, #42]
 823 0298 9BB2     		uxth	r3, r3
 369:Drivers/STM32F4xx_HAL_Driver/Src/stm32f4xx_hal_i2s_ex.c **** 
 824              		.loc 1 369 26 view .LVU280
 825 029a 013B     		subs	r3, r3, #1
 826 029c 9BB2     		uxth	r3, r3
 827 029e 6385     		strh	r3, [r4, #42]	@ movhi
 372:Drivers/STM32F4xx_HAL_Driver/Src/stm32f4xx_hal_i2s_ex.c ****         {
 828              		.loc 1 372 9 is_stmt 1 view .LVU281
 372:Drivers/STM32F4xx_HAL_Driver/Src/stm32f4xx_hal_i2s_ex.c ****         {
 829              		.loc 1 372 14 is_stmt 0 view .LVU282
 830 02a0 2368     		ldr	r3, [r4]
 831 02a2 134A     		ldr	r2, .L98
 832 02a4 9342     		cmp	r3, r2
 833 02a6 20D0     		beq	.L96
 372:Drivers/STM32F4xx_HAL_Driver/Src/stm32f4xx_hal_i2s_ex.c ****         {
 834              		.loc 1 372 14 discriminator 2 view .LVU283
 835 02a8 4FF04022 		mov	r2, #1073758208
 836              	.L59:
 372:Drivers/STM32F4xx_HAL_Driver/Src/stm32f4xx_hal_i2s_ex.c ****         {
 837              		.loc 1 372 14 discriminator 4 view .LVU284
 838 02ac 9268     		ldr	r2, [r2, #8]
 372:Drivers/STM32F4xx_HAL_Driver/Src/stm32f4xx_hal_i2s_ex.c ****         {
 839              		.loc 1 372 12 discriminator 4 view .LVU285
 840 02ae 12F0080F 		tst	r2, #8
 841 02b2 D2D0     		beq	.L56
 372:Drivers/STM32F4xx_HAL_Driver/Src/stm32f4xx_hal_i2s_ex.c ****         {
 842              		.loc 1 372 64 discriminator 5 view .LVU286
 843 02b4 B9F5807F 		cmp	r9, #256
 844 02b8 CFD1     		bne	.L56
 375:Drivers/STM32F4xx_HAL_Driver/Src/stm32f4xx_hal_i2s_ex.c **** 
 845              		.loc 1 375 11 is_stmt 1 view .LVU287
ARM GAS  /tmp/ccQYaWvF.s 			page 40


 846              	.LBB7:
 375:Drivers/STM32F4xx_HAL_Driver/Src/stm32f4xx_hal_i2s_ex.c **** 
 847              		.loc 1 375 11 view .LVU288
 848 02ba 0022     		movs	r2, #0
 849 02bc 0692     		str	r2, [sp, #24]
 375:Drivers/STM32F4xx_HAL_Driver/Src/stm32f4xx_hal_i2s_ex.c **** 
 850              		.loc 1 375 11 view .LVU289
 851 02be 9B68     		ldr	r3, [r3, #8]
 852 02c0 0693     		str	r3, [sp, #24]
 375:Drivers/STM32F4xx_HAL_Driver/Src/stm32f4xx_hal_i2s_ex.c **** 
 853              		.loc 1 375 11 view .LVU290
 854 02c2 069B     		ldr	r3, [sp, #24]
 855              	.LBE7:
 375:Drivers/STM32F4xx_HAL_Driver/Src/stm32f4xx_hal_i2s_ex.c **** 
 856              		.loc 1 375 11 view .LVU291
 378:Drivers/STM32F4xx_HAL_Driver/Src/stm32f4xx_hal_i2s_ex.c ****         }
 857              		.loc 1 378 11 view .LVU292
 858 02c4 636C     		ldr	r3, [r4, #68]
 859 02c6 43F00403 		orr	r3, r3, #4
 860 02ca 6364     		str	r3, [r4, #68]
 861 02cc C5E7     		b	.L56
 862              	.L94:
 360:Drivers/STM32F4xx_HAL_Driver/Src/stm32f4xx_hal_i2s_ex.c ****           hi2s->State = HAL_I2S_STATE_READY;
 863              		.loc 1 360 11 view .LVU293
 864 02ce 636C     		ldr	r3, [r4, #68]
 865 02d0 43F00103 		orr	r3, r3, #1
 866 02d4 6364     		str	r3, [r4, #68]
 361:Drivers/STM32F4xx_HAL_Driver/Src/stm32f4xx_hal_i2s_ex.c **** 
 867              		.loc 1 361 11 view .LVU294
 361:Drivers/STM32F4xx_HAL_Driver/Src/stm32f4xx_hal_i2s_ex.c **** 
 868              		.loc 1 361 23 is_stmt 0 view .LVU295
 869 02d6 0123     		movs	r3, #1
 870 02d8 84F84130 		strb	r3, [r4, #65]
 364:Drivers/STM32F4xx_HAL_Driver/Src/stm32f4xx_hal_i2s_ex.c ****           return HAL_ERROR;
 871              		.loc 1 364 11 is_stmt 1 view .LVU296
 364:Drivers/STM32F4xx_HAL_Driver/Src/stm32f4xx_hal_i2s_ex.c ****           return HAL_ERROR;
 872              		.loc 1 364 11 view .LVU297
 873 02dc 0023     		movs	r3, #0
 874 02de 84F84030 		strb	r3, [r4, #64]
 364:Drivers/STM32F4xx_HAL_Driver/Src/stm32f4xx_hal_i2s_ex.c ****           return HAL_ERROR;
 875              		.loc 1 364 11 view .LVU298
 365:Drivers/STM32F4xx_HAL_Driver/Src/stm32f4xx_hal_i2s_ex.c ****         }
 876              		.loc 1 365 11 view .LVU299
 365:Drivers/STM32F4xx_HAL_Driver/Src/stm32f4xx_hal_i2s_ex.c ****         }
 877              		.loc 1 365 18 is_stmt 0 view .LVU300
 878 02e2 39E0     		b	.L35
 879              	.L95:
 368:Drivers/STM32F4xx_HAL_Driver/Src/stm32f4xx_hal_i2s_ex.c ****         hi2s->TxXferCount--;
 880              		.loc 1 368 9 discriminator 1 view .LVU301
 881 02e4 A3F58063 		sub	r3, r3, #1024
 882 02e8 D4E7     		b	.L58
 883              	.L96:
 372:Drivers/STM32F4xx_HAL_Driver/Src/stm32f4xx_hal_i2s_ex.c ****         {
 884              		.loc 1 372 14 discriminator 1 view .LVU302
 885 02ea A2F58062 		sub	r2, r2, #1024
 886 02ee DDE7     		b	.L59
 887              	.L99:
ARM GAS  /tmp/ccQYaWvF.s 			page 41


 888              		.align	2
 889              	.L98:
 890 02f0 00380040 		.word	1073756160
 891 02f4 00340040 		.word	1073755136
 892              	.L93:
 384:Drivers/STM32F4xx_HAL_Driver/Src/stm32f4xx_hal_i2s_ex.c ****         {
 893              		.loc 1 384 9 is_stmt 1 view .LVU303
 384:Drivers/STM32F4xx_HAL_Driver/Src/stm32f4xx_hal_i2s_ex.c ****         {
 894              		.loc 1 384 13 is_stmt 0 view .LVU304
 895 02f8 0023     		movs	r3, #0
 896 02fa 0093     		str	r3, [sp]
 897 02fc 3B46     		mov	r3, r7
 898 02fe 0122     		movs	r2, #1
 899 0300 1146     		mov	r1, r2
 900 0302 2046     		mov	r0, r4
 901 0304 FFF7FEFF 		bl	I2SEx_FullDuplexWaitFlagStateUntilTimeout
 902              	.LVL32:
 384:Drivers/STM32F4xx_HAL_Driver/Src/stm32f4xx_hal_i2s_ex.c ****         {
 903              		.loc 1 384 12 discriminator 1 view .LVU305
 904 0308 C8B9     		cbnz	r0, .L97
 395:Drivers/STM32F4xx_HAL_Driver/Src/stm32f4xx_hal_i2s_ex.c ****         hi2s->RxXferCount--;
 905              		.loc 1 395 9 is_stmt 1 view .LVU306
 395:Drivers/STM32F4xx_HAL_Driver/Src/stm32f4xx_hal_i2s_ex.c ****         hi2s->RxXferCount--;
 906              		.loc 1 395 28 is_stmt 0 view .LVU307
 907 030a 2368     		ldr	r3, [r4]
 395:Drivers/STM32F4xx_HAL_Driver/Src/stm32f4xx_hal_i2s_ex.c ****         hi2s->RxXferCount--;
 908              		.loc 1 395 38 view .LVU308
 909 030c DB68     		ldr	r3, [r3, #12]
 910              	.LVL33:
 395:Drivers/STM32F4xx_HAL_Driver/Src/stm32f4xx_hal_i2s_ex.c ****         hi2s->RxXferCount--;
 911              		.loc 1 395 22 view .LVU309
 912 030e 26F8023B 		strh	r3, [r6], #2	@ movhi
 913              	.LVL34:
 396:Drivers/STM32F4xx_HAL_Driver/Src/stm32f4xx_hal_i2s_ex.c **** 
 914              		.loc 1 396 9 is_stmt 1 view .LVU310
 396:Drivers/STM32F4xx_HAL_Driver/Src/stm32f4xx_hal_i2s_ex.c **** 
 915              		.loc 1 396 13 is_stmt 0 view .LVU311
 916 0312 638E     		ldrh	r3, [r4, #50]
 917 0314 9BB2     		uxth	r3, r3
 396:Drivers/STM32F4xx_HAL_Driver/Src/stm32f4xx_hal_i2s_ex.c **** 
 918              		.loc 1 396 26 view .LVU312
 919 0316 013B     		subs	r3, r3, #1
 920 0318 9BB2     		uxth	r3, r3
 921 031a 6386     		strh	r3, [r4, #50]	@ movhi
 399:Drivers/STM32F4xx_HAL_Driver/Src/stm32f4xx_hal_i2s_ex.c ****         {
 922              		.loc 1 399 9 is_stmt 1 view .LVU313
 399:Drivers/STM32F4xx_HAL_Driver/Src/stm32f4xx_hal_i2s_ex.c ****         {
 923              		.loc 1 399 13 is_stmt 0 view .LVU314
 924 031c 2368     		ldr	r3, [r4]
 925 031e 9A68     		ldr	r2, [r3, #8]
 399:Drivers/STM32F4xx_HAL_Driver/Src/stm32f4xx_hal_i2s_ex.c ****         {
 926              		.loc 1 399 12 view .LVU315
 927 0320 12F0400F 		tst	r2, #64
 928 0324 9DD0     		beq	.L62
 402:Drivers/STM32F4xx_HAL_Driver/Src/stm32f4xx_hal_i2s_ex.c **** 
 929              		.loc 1 402 11 is_stmt 1 view .LVU316
 930              	.LBB8:
ARM GAS  /tmp/ccQYaWvF.s 			page 42


 402:Drivers/STM32F4xx_HAL_Driver/Src/stm32f4xx_hal_i2s_ex.c **** 
 931              		.loc 1 402 11 view .LVU317
 932 0326 0022     		movs	r2, #0
 933 0328 0792     		str	r2, [sp, #28]
 402:Drivers/STM32F4xx_HAL_Driver/Src/stm32f4xx_hal_i2s_ex.c **** 
 934              		.loc 1 402 11 view .LVU318
 935 032a DA68     		ldr	r2, [r3, #12]
 936 032c 0792     		str	r2, [sp, #28]
 402:Drivers/STM32F4xx_HAL_Driver/Src/stm32f4xx_hal_i2s_ex.c **** 
 937              		.loc 1 402 11 view .LVU319
 938 032e 9B68     		ldr	r3, [r3, #8]
 939 0330 0793     		str	r3, [sp, #28]
 402:Drivers/STM32F4xx_HAL_Driver/Src/stm32f4xx_hal_i2s_ex.c **** 
 940              		.loc 1 402 11 view .LVU320
 941 0332 079B     		ldr	r3, [sp, #28]
 942              	.LBE8:
 402:Drivers/STM32F4xx_HAL_Driver/Src/stm32f4xx_hal_i2s_ex.c **** 
 943              		.loc 1 402 11 view .LVU321
 405:Drivers/STM32F4xx_HAL_Driver/Src/stm32f4xx_hal_i2s_ex.c ****         }
 944              		.loc 1 405 11 view .LVU322
 945 0334 636C     		ldr	r3, [r4, #68]
 946 0336 43F00203 		orr	r3, r3, #2
 947 033a 6364     		str	r3, [r4, #68]
 948 033c 91E7     		b	.L62
 949              	.L97:
 387:Drivers/STM32F4xx_HAL_Driver/Src/stm32f4xx_hal_i2s_ex.c ****           hi2s->State = HAL_I2S_STATE_READY;
 950              		.loc 1 387 11 view .LVU323
 951 033e 636C     		ldr	r3, [r4, #68]
 952 0340 43F00103 		orr	r3, r3, #1
 953 0344 6364     		str	r3, [r4, #68]
 388:Drivers/STM32F4xx_HAL_Driver/Src/stm32f4xx_hal_i2s_ex.c **** 
 954              		.loc 1 388 11 view .LVU324
 388:Drivers/STM32F4xx_HAL_Driver/Src/stm32f4xx_hal_i2s_ex.c **** 
 955              		.loc 1 388 23 is_stmt 0 view .LVU325
 956 0346 0123     		movs	r3, #1
 957 0348 84F84130 		strb	r3, [r4, #65]
 391:Drivers/STM32F4xx_HAL_Driver/Src/stm32f4xx_hal_i2s_ex.c ****           return HAL_ERROR;
 958              		.loc 1 391 11 is_stmt 1 view .LVU326
 391:Drivers/STM32F4xx_HAL_Driver/Src/stm32f4xx_hal_i2s_ex.c ****           return HAL_ERROR;
 959              		.loc 1 391 11 view .LVU327
 960 034c 0023     		movs	r3, #0
 961 034e 84F84030 		strb	r3, [r4, #64]
 391:Drivers/STM32F4xx_HAL_Driver/Src/stm32f4xx_hal_i2s_ex.c ****           return HAL_ERROR;
 962              		.loc 1 391 11 view .LVU328
 392:Drivers/STM32F4xx_HAL_Driver/Src/stm32f4xx_hal_i2s_ex.c ****         }
 963              		.loc 1 392 11 view .LVU329
 392:Drivers/STM32F4xx_HAL_Driver/Src/stm32f4xx_hal_i2s_ex.c ****         }
 964              		.loc 1 392 18 is_stmt 0 view .LVU330
 965 0352 01E0     		b	.L35
 966              	.LVL35:
 967              	.L64:
 216:Drivers/STM32F4xx_HAL_Driver/Src/stm32f4xx_hal_i2s_ex.c ****   }
 968              		.loc 1 216 12 view .LVU331
 969 0354 4FF00208 		mov	r8, #2
 970              	.LVL36:
 971              	.L35:
 422:Drivers/STM32F4xx_HAL_Driver/Src/stm32f4xx_hal_i2s_ex.c **** 
ARM GAS  /tmp/ccQYaWvF.s 			page 43


 972              		.loc 1 422 1 view .LVU332
 973 0358 4046     		mov	r0, r8
 974 035a 09B0     		add	sp, sp, #36
 975              		.cfi_remember_state
 976              		.cfi_def_cfa_offset 28
 977              		@ sp needed
 978 035c BDE8F083 		pop	{r4, r5, r6, r7, r8, r9, pc}
 979              	.LVL37:
 980              	.L65:
 981              		.cfi_restore_state
 225:Drivers/STM32F4xx_HAL_Driver/Src/stm32f4xx_hal_i2s_ex.c **** 
 982              		.loc 1 225 3 discriminator 1 view .LVU333
 983 0360 4FF00208 		mov	r8, #2
 984 0364 F8E7     		b	.L35
 985              		.cfi_endproc
 986              	.LFE134:
 988 0366 00BF     		.section	.text.HAL_I2SEx_TransmitReceive_IT,"ax",%progbits
 989              		.align	1
 990              		.global	HAL_I2SEx_TransmitReceive_IT
 991              		.syntax unified
 992              		.thumb
 993              		.thumb_func
 995              	HAL_I2SEx_TransmitReceive_IT:
 996              	.LVL38:
 997              	.LFB135:
 443:Drivers/STM32F4xx_HAL_Driver/Src/stm32f4xx_hal_i2s_ex.c ****   uint32_t tmp1 = 0U;
 998              		.loc 1 443 1 is_stmt 1 view -0
 999              		.cfi_startproc
 1000              		@ args = 0, pretend = 0, frame = 0
 1001              		@ frame_needed = 0, uses_anonymous_args = 0
 443:Drivers/STM32F4xx_HAL_Driver/Src/stm32f4xx_hal_i2s_ex.c ****   uint32_t tmp1 = 0U;
 1002              		.loc 1 443 1 is_stmt 0 view .LVU335
 1003 0000 00B5     		push	{lr}
 1004              		.cfi_def_cfa_offset 4
 1005              		.cfi_offset 14, -4
 444:Drivers/STM32F4xx_HAL_Driver/Src/stm32f4xx_hal_i2s_ex.c **** 
 1006              		.loc 1 444 3 is_stmt 1 view .LVU336
 1007              	.LVL39:
 446:Drivers/STM32F4xx_HAL_Driver/Src/stm32f4xx_hal_i2s_ex.c ****   {
 1008              		.loc 1 446 3 view .LVU337
 446:Drivers/STM32F4xx_HAL_Driver/Src/stm32f4xx_hal_i2s_ex.c ****   {
 1009              		.loc 1 446 11 is_stmt 0 view .LVU338
 1010 0002 90F841E0 		ldrb	lr, [r0, #65]	@ zero_extendqisi2
 446:Drivers/STM32F4xx_HAL_Driver/Src/stm32f4xx_hal_i2s_ex.c ****   {
 1011              		.loc 1 446 6 view .LVU339
 1012 0006 BEF1010F 		cmp	lr, #1
 1013 000a 40F0C080 		bne	.L113
 1014 000e 8446     		mov	ip, r0
 1015 0010 5FFA8EF0 		uxtb	r0, lr
 1016              	.LVL40:
 451:Drivers/STM32F4xx_HAL_Driver/Src/stm32f4xx_hal_i2s_ex.c ****   {
 1017              		.loc 1 451 3 is_stmt 1 view .LVU340
 451:Drivers/STM32F4xx_HAL_Driver/Src/stm32f4xx_hal_i2s_ex.c ****   {
 1018              		.loc 1 451 6 is_stmt 0 view .LVU341
 1019 0014 0029     		cmp	r1, #0
 1020 0016 00F0BB80 		beq	.L101
 451:Drivers/STM32F4xx_HAL_Driver/Src/stm32f4xx_hal_i2s_ex.c ****   {
ARM GAS  /tmp/ccQYaWvF.s 			page 44


 1021              		.loc 1 451 25 discriminator 1 view .LVU342
 1022 001a 002A     		cmp	r2, #0
 1023 001c 00F0B880 		beq	.L101
 451:Drivers/STM32F4xx_HAL_Driver/Src/stm32f4xx_hal_i2s_ex.c ****   {
 1024              		.loc 1 451 46 discriminator 2 view .LVU343
 1025 0020 002B     		cmp	r3, #0
 1026 0022 00F0B580 		beq	.L101
 457:Drivers/STM32F4xx_HAL_Driver/Src/stm32f4xx_hal_i2s_ex.c **** 
 1027              		.loc 1 457 3 is_stmt 1 view .LVU344
 457:Drivers/STM32F4xx_HAL_Driver/Src/stm32f4xx_hal_i2s_ex.c **** 
 1028              		.loc 1 457 3 view .LVU345
 1029 0026 9CF84000 		ldrb	r0, [ip, #64]	@ zero_extendqisi2
 1030 002a 0128     		cmp	r0, #1
 1031 002c 00F0B280 		beq	.L114
 457:Drivers/STM32F4xx_HAL_Driver/Src/stm32f4xx_hal_i2s_ex.c **** 
 1032              		.loc 1 457 3 discriminator 2 view .LVU346
 1033 0030 0120     		movs	r0, #1
 1034 0032 8CF84000 		strb	r0, [ip, #64]
 457:Drivers/STM32F4xx_HAL_Driver/Src/stm32f4xx_hal_i2s_ex.c **** 
 1035              		.loc 1 457 3 view .LVU347
 459:Drivers/STM32F4xx_HAL_Driver/Src/stm32f4xx_hal_i2s_ex.c ****   hi2s->pRxBuffPtr = pRxData;
 1036              		.loc 1 459 3 view .LVU348
 459:Drivers/STM32F4xx_HAL_Driver/Src/stm32f4xx_hal_i2s_ex.c ****   hi2s->pRxBuffPtr = pRxData;
 1037              		.loc 1 459 20 is_stmt 0 view .LVU349
 1038 0036 CCF82410 		str	r1, [ip, #36]
 460:Drivers/STM32F4xx_HAL_Driver/Src/stm32f4xx_hal_i2s_ex.c **** 
 1039              		.loc 1 460 3 is_stmt 1 view .LVU350
 460:Drivers/STM32F4xx_HAL_Driver/Src/stm32f4xx_hal_i2s_ex.c **** 
 1040              		.loc 1 460 20 is_stmt 0 view .LVU351
 1041 003a CCF82C20 		str	r2, [ip, #44]
 462:Drivers/STM32F4xx_HAL_Driver/Src/stm32f4xx_hal_i2s_ex.c ****   /* Check the Data format: When a 16-bit data frame or a 16-bit data frame extended
 1042              		.loc 1 462 3 is_stmt 1 view .LVU352
 462:Drivers/STM32F4xx_HAL_Driver/Src/stm32f4xx_hal_i2s_ex.c ****   /* Check the Data format: When a 16-bit data frame or a 16-bit data frame extended
 1043              		.loc 1 462 14 is_stmt 0 view .LVU353
 1044 003e DCF80010 		ldr	r1, [ip]
 1045              	.LVL41:
 462:Drivers/STM32F4xx_HAL_Driver/Src/stm32f4xx_hal_i2s_ex.c ****   /* Check the Data format: When a 16-bit data frame or a 16-bit data frame extended
 1046              		.loc 1 462 24 view .LVU354
 1047 0042 CA69     		ldr	r2, [r1, #28]
 1048              	.LVL42:
 462:Drivers/STM32F4xx_HAL_Driver/Src/stm32f4xx_hal_i2s_ex.c ****   /* Check the Data format: When a 16-bit data frame or a 16-bit data frame extended
 1049              		.loc 1 462 8 view .LVU355
 1050 0044 02F00702 		and	r2, r2, #7
 1051              	.LVL43:
 467:Drivers/STM32F4xx_HAL_Driver/Src/stm32f4xx_hal_i2s_ex.c ****   {
 1052              		.loc 1 467 3 is_stmt 1 view .LVU356
 467:Drivers/STM32F4xx_HAL_Driver/Src/stm32f4xx_hal_i2s_ex.c ****   {
 1053              		.loc 1 467 6 is_stmt 0 view .LVU357
 1054 0048 032A     		cmp	r2, #3
 1055 004a 0AD0     		beq	.L102
 467:Drivers/STM32F4xx_HAL_Driver/Src/stm32f4xx_hal_i2s_ex.c ****   {
 1056              		.loc 1 467 36 discriminator 1 view .LVU358
 1057 004c 052A     		cmp	r2, #5
 1058 004e 08D0     		beq	.L102
 476:Drivers/STM32F4xx_HAL_Driver/Src/stm32f4xx_hal_i2s_ex.c ****     hi2s->TxXferCount = Size;
 1059              		.loc 1 476 5 is_stmt 1 view .LVU359
 476:Drivers/STM32F4xx_HAL_Driver/Src/stm32f4xx_hal_i2s_ex.c ****     hi2s->TxXferCount = Size;
ARM GAS  /tmp/ccQYaWvF.s 			page 45


 1060              		.loc 1 476 23 is_stmt 0 view .LVU360
 1061 0050 ACF82830 		strh	r3, [ip, #40]	@ movhi
 477:Drivers/STM32F4xx_HAL_Driver/Src/stm32f4xx_hal_i2s_ex.c ****     hi2s->RxXferSize  = Size;
 1062              		.loc 1 477 5 is_stmt 1 view .LVU361
 477:Drivers/STM32F4xx_HAL_Driver/Src/stm32f4xx_hal_i2s_ex.c ****     hi2s->RxXferSize  = Size;
 1063              		.loc 1 477 23 is_stmt 0 view .LVU362
 1064 0054 ACF82A30 		strh	r3, [ip, #42]	@ movhi
 478:Drivers/STM32F4xx_HAL_Driver/Src/stm32f4xx_hal_i2s_ex.c ****     hi2s->RxXferCount = Size;
 1065              		.loc 1 478 5 is_stmt 1 view .LVU363
 478:Drivers/STM32F4xx_HAL_Driver/Src/stm32f4xx_hal_i2s_ex.c ****     hi2s->RxXferCount = Size;
 1066              		.loc 1 478 23 is_stmt 0 view .LVU364
 1067 0058 ACF83030 		strh	r3, [ip, #48]	@ movhi
 479:Drivers/STM32F4xx_HAL_Driver/Src/stm32f4xx_hal_i2s_ex.c ****   }
 1068              		.loc 1 479 5 is_stmt 1 view .LVU365
 479:Drivers/STM32F4xx_HAL_Driver/Src/stm32f4xx_hal_i2s_ex.c ****   }
 1069              		.loc 1 479 23 is_stmt 0 view .LVU366
 1070 005c ACF83230 		strh	r3, [ip, #50]	@ movhi
 1071 0060 09E0     		b	.L104
 1072              	.L102:
 469:Drivers/STM32F4xx_HAL_Driver/Src/stm32f4xx_hal_i2s_ex.c ****     hi2s->TxXferCount = (Size << 1U);
 1073              		.loc 1 469 5 is_stmt 1 view .LVU367
 469:Drivers/STM32F4xx_HAL_Driver/Src/stm32f4xx_hal_i2s_ex.c ****     hi2s->TxXferCount = (Size << 1U);
 1074              		.loc 1 469 31 is_stmt 0 view .LVU368
 1075 0062 5B00     		lsls	r3, r3, #1
 1076              	.LVL44:
 469:Drivers/STM32F4xx_HAL_Driver/Src/stm32f4xx_hal_i2s_ex.c ****     hi2s->TxXferCount = (Size << 1U);
 1077              		.loc 1 469 31 view .LVU369
 1078 0064 9BB2     		uxth	r3, r3
 469:Drivers/STM32F4xx_HAL_Driver/Src/stm32f4xx_hal_i2s_ex.c ****     hi2s->TxXferCount = (Size << 1U);
 1079              		.loc 1 469 23 view .LVU370
 1080 0066 ACF82830 		strh	r3, [ip, #40]	@ movhi
 470:Drivers/STM32F4xx_HAL_Driver/Src/stm32f4xx_hal_i2s_ex.c ****     hi2s->RxXferSize  = (Size << 1U);
 1081              		.loc 1 470 5 is_stmt 1 view .LVU371
 470:Drivers/STM32F4xx_HAL_Driver/Src/stm32f4xx_hal_i2s_ex.c ****     hi2s->RxXferSize  = (Size << 1U);
 1082              		.loc 1 470 23 is_stmt 0 view .LVU372
 1083 006a ACF82A30 		strh	r3, [ip, #42]	@ movhi
 471:Drivers/STM32F4xx_HAL_Driver/Src/stm32f4xx_hal_i2s_ex.c ****     hi2s->RxXferCount = (Size << 1U);
 1084              		.loc 1 471 5 is_stmt 1 view .LVU373
 471:Drivers/STM32F4xx_HAL_Driver/Src/stm32f4xx_hal_i2s_ex.c ****     hi2s->RxXferCount = (Size << 1U);
 1085              		.loc 1 471 23 is_stmt 0 view .LVU374
 1086 006e ACF83030 		strh	r3, [ip, #48]	@ movhi
 472:Drivers/STM32F4xx_HAL_Driver/Src/stm32f4xx_hal_i2s_ex.c ****   }
 1087              		.loc 1 472 5 is_stmt 1 view .LVU375
 472:Drivers/STM32F4xx_HAL_Driver/Src/stm32f4xx_hal_i2s_ex.c ****   }
 1088              		.loc 1 472 23 is_stmt 0 view .LVU376
 1089 0072 ACF83230 		strh	r3, [ip, #50]	@ movhi
 1090              	.L104:
 482:Drivers/STM32F4xx_HAL_Driver/Src/stm32f4xx_hal_i2s_ex.c ****   hi2s->State     = HAL_I2S_STATE_BUSY_TX_RX;
 1091              		.loc 1 482 3 is_stmt 1 view .LVU377
 482:Drivers/STM32F4xx_HAL_Driver/Src/stm32f4xx_hal_i2s_ex.c ****   hi2s->State     = HAL_I2S_STATE_BUSY_TX_RX;
 1092              		.loc 1 482 19 is_stmt 0 view .LVU378
 1093 0076 0023     		movs	r3, #0
 1094 0078 CCF84430 		str	r3, [ip, #68]
 483:Drivers/STM32F4xx_HAL_Driver/Src/stm32f4xx_hal_i2s_ex.c **** 
 1095              		.loc 1 483 3 is_stmt 1 view .LVU379
 483:Drivers/STM32F4xx_HAL_Driver/Src/stm32f4xx_hal_i2s_ex.c **** 
 1096              		.loc 1 483 19 is_stmt 0 view .LVU380
ARM GAS  /tmp/ccQYaWvF.s 			page 46


 1097 007c 0523     		movs	r3, #5
 1098 007e 8CF84130 		strb	r3, [ip, #65]
 486:Drivers/STM32F4xx_HAL_Driver/Src/stm32f4xx_hal_i2s_ex.c ****   {
 1099              		.loc 1 486 3 is_stmt 1 view .LVU381
 486:Drivers/STM32F4xx_HAL_Driver/Src/stm32f4xx_hal_i2s_ex.c ****   {
 1100              		.loc 1 486 18 is_stmt 0 view .LVU382
 1101 0082 DCF80430 		ldr	r3, [ip, #4]
 486:Drivers/STM32F4xx_HAL_Driver/Src/stm32f4xx_hal_i2s_ex.c ****   {
 1102              		.loc 1 486 6 view .LVU383
 1103 0086 B3F5007F 		cmp	r3, #512
 1104 008a 01D0     		beq	.L105
 486:Drivers/STM32F4xx_HAL_Driver/Src/stm32f4xx_hal_i2s_ex.c ****   {
 1105              		.loc 1 486 47 discriminator 1 view .LVU384
 1106 008c 002B     		cmp	r3, #0
 1107 008e 40D1     		bne	.L106
 1108              	.L105:
 489:Drivers/STM32F4xx_HAL_Driver/Src/stm32f4xx_hal_i2s_ex.c **** 
 1109              		.loc 1 489 5 is_stmt 1 view .LVU385
 1110 0090 414B     		ldr	r3, .L126
 1111 0092 9942     		cmp	r1, r3
 1112 0094 3BD0     		beq	.L121
 489:Drivers/STM32F4xx_HAL_Driver/Src/stm32f4xx_hal_i2s_ex.c **** 
 1113              		.loc 1 489 5 is_stmt 0 discriminator 2 view .LVU386
 1114 0096 4FF04022 		mov	r2, #1073758208
 1115              	.LVL45:
 1116              	.L107:
 489:Drivers/STM32F4xx_HAL_Driver/Src/stm32f4xx_hal_i2s_ex.c **** 
 1117              		.loc 1 489 5 discriminator 4 view .LVU387
 1118 009a 5368     		ldr	r3, [r2, #4]
 489:Drivers/STM32F4xx_HAL_Driver/Src/stm32f4xx_hal_i2s_ex.c **** 
 1119              		.loc 1 489 5 discriminator 8 view .LVU388
 1120 009c 43F06003 		orr	r3, r3, #96
 1121 00a0 5360     		str	r3, [r2, #4]
 1122              	.LVL46:
 492:Drivers/STM32F4xx_HAL_Driver/Src/stm32f4xx_hal_i2s_ex.c **** 
 1123              		.loc 1 492 5 is_stmt 1 view .LVU389
 1124 00a2 DCF80020 		ldr	r2, [ip]
 1125 00a6 5368     		ldr	r3, [r2, #4]
 1126 00a8 43F0A003 		orr	r3, r3, #160
 1127 00ac 5360     		str	r3, [r2, #4]
 495:Drivers/STM32F4xx_HAL_Driver/Src/stm32f4xx_hal_i2s_ex.c ****     hi2s->TxXferCount--;
 1128              		.loc 1 495 5 view .LVU390
 495:Drivers/STM32F4xx_HAL_Driver/Src/stm32f4xx_hal_i2s_ex.c ****     hi2s->TxXferCount--;
 1129              		.loc 1 495 32 is_stmt 0 view .LVU391
 1130 00ae DCF82430 		ldr	r3, [ip, #36]
 495:Drivers/STM32F4xx_HAL_Driver/Src/stm32f4xx_hal_i2s_ex.c ****     hi2s->TxXferCount--;
 1131              		.loc 1 495 44 view .LVU392
 1132 00b2 9A1C     		adds	r2, r3, #2
 1133 00b4 CCF82420 		str	r2, [ip, #36]
 495:Drivers/STM32F4xx_HAL_Driver/Src/stm32f4xx_hal_i2s_ex.c ****     hi2s->TxXferCount--;
 1134              		.loc 1 495 9 view .LVU393
 1135 00b8 DCF80020 		ldr	r2, [ip]
 495:Drivers/STM32F4xx_HAL_Driver/Src/stm32f4xx_hal_i2s_ex.c ****     hi2s->TxXferCount--;
 1136              		.loc 1 495 27 view .LVU394
 1137 00bc 1B88     		ldrh	r3, [r3]
 495:Drivers/STM32F4xx_HAL_Driver/Src/stm32f4xx_hal_i2s_ex.c ****     hi2s->TxXferCount--;
 1138              		.loc 1 495 24 view .LVU395
ARM GAS  /tmp/ccQYaWvF.s 			page 47


 1139 00be D360     		str	r3, [r2, #12]
 496:Drivers/STM32F4xx_HAL_Driver/Src/stm32f4xx_hal_i2s_ex.c **** 
 1140              		.loc 1 496 5 is_stmt 1 view .LVU396
 496:Drivers/STM32F4xx_HAL_Driver/Src/stm32f4xx_hal_i2s_ex.c **** 
 1141              		.loc 1 496 9 is_stmt 0 view .LVU397
 1142 00c0 BCF82A30 		ldrh	r3, [ip, #42]
 1143 00c4 9BB2     		uxth	r3, r3
 496:Drivers/STM32F4xx_HAL_Driver/Src/stm32f4xx_hal_i2s_ex.c **** 
 1144              		.loc 1 496 22 view .LVU398
 1145 00c6 013B     		subs	r3, r3, #1
 1146 00c8 9BB2     		uxth	r3, r3
 1147 00ca ACF82A30 		strh	r3, [ip, #42]	@ movhi
 498:Drivers/STM32F4xx_HAL_Driver/Src/stm32f4xx_hal_i2s_ex.c ****     {
 1148              		.loc 1 498 5 is_stmt 1 view .LVU399
 498:Drivers/STM32F4xx_HAL_Driver/Src/stm32f4xx_hal_i2s_ex.c ****     {
 1149              		.loc 1 498 13 is_stmt 0 view .LVU400
 1150 00ce BCF82A30 		ldrh	r3, [ip, #42]
 1151 00d2 9BB2     		uxth	r3, r3
 498:Drivers/STM32F4xx_HAL_Driver/Src/stm32f4xx_hal_i2s_ex.c ****     {
 1152              		.loc 1 498 8 view .LVU401
 1153 00d4 2BB9     		cbnz	r3, .L108
 501:Drivers/STM32F4xx_HAL_Driver/Src/stm32f4xx_hal_i2s_ex.c ****     }
 1154              		.loc 1 501 7 is_stmt 1 view .LVU402
 1155 00d6 DCF80020 		ldr	r2, [ip]
 1156 00da 5368     		ldr	r3, [r2, #4]
 1157 00dc 23F0A003 		bic	r3, r3, #160
 1158 00e0 5360     		str	r3, [r2, #4]
 1159              	.L108:
 523:Drivers/STM32F4xx_HAL_Driver/Src/stm32f4xx_hal_i2s_ex.c ****   /* Enable I2Sext peripheral */
 1160              		.loc 1 523 3 view .LVU403
 523:Drivers/STM32F4xx_HAL_Driver/Src/stm32f4xx_hal_i2s_ex.c ****   /* Enable I2Sext peripheral */
 1161              		.loc 1 523 3 view .LVU404
 1162 00e2 0023     		movs	r3, #0
 1163 00e4 8CF84030 		strb	r3, [ip, #64]
 523:Drivers/STM32F4xx_HAL_Driver/Src/stm32f4xx_hal_i2s_ex.c ****   /* Enable I2Sext peripheral */
 1164              		.loc 1 523 3 view .LVU405
 525:Drivers/STM32F4xx_HAL_Driver/Src/stm32f4xx_hal_i2s_ex.c **** 
 1165              		.loc 1 525 3 view .LVU406
 1166 00e8 DCF80020 		ldr	r2, [ip]
 1167 00ec 2A4B     		ldr	r3, .L126
 1168 00ee 9A42     		cmp	r2, r3
 1169 00f0 4BD0     		beq	.L122
 525:Drivers/STM32F4xx_HAL_Driver/Src/stm32f4xx_hal_i2s_ex.c **** 
 1170              		.loc 1 525 3 is_stmt 0 discriminator 2 view .LVU407
 1171 00f2 4FF04022 		mov	r2, #1073758208
 1172              	.L112:
 525:Drivers/STM32F4xx_HAL_Driver/Src/stm32f4xx_hal_i2s_ex.c **** 
 1173              		.loc 1 525 3 discriminator 4 view .LVU408
 1174 00f6 D369     		ldr	r3, [r2, #28]
 525:Drivers/STM32F4xx_HAL_Driver/Src/stm32f4xx_hal_i2s_ex.c **** 
 1175              		.loc 1 525 3 discriminator 8 view .LVU409
 1176 00f8 43F48063 		orr	r3, r3, #1024
 1177 00fc D361     		str	r3, [r2, #28]
 528:Drivers/STM32F4xx_HAL_Driver/Src/stm32f4xx_hal_i2s_ex.c **** 
 1178              		.loc 1 528 3 is_stmt 1 view .LVU410
 1179 00fe DCF80020 		ldr	r2, [ip]
 1180 0102 D369     		ldr	r3, [r2, #28]
ARM GAS  /tmp/ccQYaWvF.s 			page 48


 1181 0104 43F48063 		orr	r3, r3, #1024
 1182 0108 D361     		str	r3, [r2, #28]
 530:Drivers/STM32F4xx_HAL_Driver/Src/stm32f4xx_hal_i2s_ex.c **** }
 1183              		.loc 1 530 3 view .LVU411
 530:Drivers/STM32F4xx_HAL_Driver/Src/stm32f4xx_hal_i2s_ex.c **** }
 1184              		.loc 1 530 10 is_stmt 0 view .LVU412
 1185 010a 0020     		movs	r0, #0
 1186 010c 40E0     		b	.L101
 1187              	.LVL47:
 1188              	.L121:
 489:Drivers/STM32F4xx_HAL_Driver/Src/stm32f4xx_hal_i2s_ex.c **** 
 1189              		.loc 1 489 5 discriminator 1 view .LVU413
 1190 010e 234A     		ldr	r2, .L126+4
 1191              	.LVL48:
 489:Drivers/STM32F4xx_HAL_Driver/Src/stm32f4xx_hal_i2s_ex.c **** 
 1192              		.loc 1 489 5 discriminator 1 view .LVU414
 1193 0110 C3E7     		b	.L107
 1194              	.LVL49:
 1195              	.L106:
 507:Drivers/STM32F4xx_HAL_Driver/Src/stm32f4xx_hal_i2s_ex.c **** 
 1196              		.loc 1 507 5 is_stmt 1 view .LVU415
 1197 0112 214B     		ldr	r3, .L126
 1198 0114 9942     		cmp	r1, r3
 1199 0116 31D0     		beq	.L123
 507:Drivers/STM32F4xx_HAL_Driver/Src/stm32f4xx_hal_i2s_ex.c **** 
 1200              		.loc 1 507 5 is_stmt 0 discriminator 2 view .LVU416
 1201 0118 4FF04022 		mov	r2, #1073758208
 1202              	.LVL50:
 1203              	.L109:
 507:Drivers/STM32F4xx_HAL_Driver/Src/stm32f4xx_hal_i2s_ex.c **** 
 1204              		.loc 1 507 5 discriminator 4 view .LVU417
 1205 011c 5368     		ldr	r3, [r2, #4]
 507:Drivers/STM32F4xx_HAL_Driver/Src/stm32f4xx_hal_i2s_ex.c **** 
 1206              		.loc 1 507 5 discriminator 8 view .LVU418
 1207 011e 43F0A003 		orr	r3, r3, #160
 1208 0122 5360     		str	r3, [r2, #4]
 1209              	.LVL51:
 510:Drivers/STM32F4xx_HAL_Driver/Src/stm32f4xx_hal_i2s_ex.c **** 
 1210              		.loc 1 510 5 is_stmt 1 view .LVU419
 1211 0124 DCF80020 		ldr	r2, [ip]
 1212 0128 5368     		ldr	r3, [r2, #4]
 1213 012a 43F06003 		orr	r3, r3, #96
 1214 012e 5360     		str	r3, [r2, #4]
 513:Drivers/STM32F4xx_HAL_Driver/Src/stm32f4xx_hal_i2s_ex.c ****     hi2s->TxXferCount--;
 1215              		.loc 1 513 5 view .LVU420
 513:Drivers/STM32F4xx_HAL_Driver/Src/stm32f4xx_hal_i2s_ex.c ****     hi2s->TxXferCount--;
 1216              		.loc 1 513 41 is_stmt 0 view .LVU421
 1217 0130 DCF82430 		ldr	r3, [ip, #36]
 513:Drivers/STM32F4xx_HAL_Driver/Src/stm32f4xx_hal_i2s_ex.c ****     hi2s->TxXferCount--;
 1218              		.loc 1 513 53 view .LVU422
 1219 0134 9A1C     		adds	r2, r3, #2
 1220 0136 CCF82420 		str	r2, [ip, #36]
 513:Drivers/STM32F4xx_HAL_Driver/Src/stm32f4xx_hal_i2s_ex.c ****     hi2s->TxXferCount--;
 1221              		.loc 1 513 36 view .LVU423
 1222 013a 1B88     		ldrh	r3, [r3]
 513:Drivers/STM32F4xx_HAL_Driver/Src/stm32f4xx_hal_i2s_ex.c ****     hi2s->TxXferCount--;
 1223              		.loc 1 513 5 view .LVU424
ARM GAS  /tmp/ccQYaWvF.s 			page 49


 1224 013c DCF80010 		ldr	r1, [ip]
 1225 0140 154A     		ldr	r2, .L126
 1226 0142 9142     		cmp	r1, r2
 1227 0144 1CD0     		beq	.L124
 513:Drivers/STM32F4xx_HAL_Driver/Src/stm32f4xx_hal_i2s_ex.c ****     hi2s->TxXferCount--;
 1228              		.loc 1 513 5 discriminator 2 view .LVU425
 1229 0146 4FF04022 		mov	r2, #1073758208
 1230              	.L110:
 513:Drivers/STM32F4xx_HAL_Driver/Src/stm32f4xx_hal_i2s_ex.c ****     hi2s->TxXferCount--;
 1231              		.loc 1 513 33 discriminator 4 view .LVU426
 1232 014a D360     		str	r3, [r2, #12]
 514:Drivers/STM32F4xx_HAL_Driver/Src/stm32f4xx_hal_i2s_ex.c **** 
 1233              		.loc 1 514 5 is_stmt 1 view .LVU427
 514:Drivers/STM32F4xx_HAL_Driver/Src/stm32f4xx_hal_i2s_ex.c **** 
 1234              		.loc 1 514 9 is_stmt 0 view .LVU428
 1235 014c BCF82A30 		ldrh	r3, [ip, #42]
 1236 0150 9BB2     		uxth	r3, r3
 514:Drivers/STM32F4xx_HAL_Driver/Src/stm32f4xx_hal_i2s_ex.c **** 
 1237              		.loc 1 514 22 view .LVU429
 1238 0152 013B     		subs	r3, r3, #1
 1239 0154 9BB2     		uxth	r3, r3
 1240 0156 ACF82A30 		strh	r3, [ip, #42]	@ movhi
 516:Drivers/STM32F4xx_HAL_Driver/Src/stm32f4xx_hal_i2s_ex.c ****     {
 1241              		.loc 1 516 5 is_stmt 1 view .LVU430
 516:Drivers/STM32F4xx_HAL_Driver/Src/stm32f4xx_hal_i2s_ex.c ****     {
 1242              		.loc 1 516 13 is_stmt 0 view .LVU431
 1243 015a BCF82A30 		ldrh	r3, [ip, #42]
 1244 015e 9BB2     		uxth	r3, r3
 516:Drivers/STM32F4xx_HAL_Driver/Src/stm32f4xx_hal_i2s_ex.c ****     {
 1245              		.loc 1 516 8 view .LVU432
 1246 0160 002B     		cmp	r3, #0
 1247 0162 BED1     		bne	.L108
 519:Drivers/STM32F4xx_HAL_Driver/Src/stm32f4xx_hal_i2s_ex.c ****     }
 1248              		.loc 1 519 7 is_stmt 1 view .LVU433
 1249 0164 DCF80020 		ldr	r2, [ip]
 1250 0168 0B4B     		ldr	r3, .L126
 1251 016a 9A42     		cmp	r2, r3
 1252 016c 0BD0     		beq	.L125
 519:Drivers/STM32F4xx_HAL_Driver/Src/stm32f4xx_hal_i2s_ex.c ****     }
 1253              		.loc 1 519 7 is_stmt 0 discriminator 2 view .LVU434
 1254 016e 4FF04022 		mov	r2, #1073758208
 1255              	.L111:
 519:Drivers/STM32F4xx_HAL_Driver/Src/stm32f4xx_hal_i2s_ex.c ****     }
 1256              		.loc 1 519 7 discriminator 4 view .LVU435
 1257 0172 5368     		ldr	r3, [r2, #4]
 519:Drivers/STM32F4xx_HAL_Driver/Src/stm32f4xx_hal_i2s_ex.c ****     }
 1258              		.loc 1 519 7 discriminator 8 view .LVU436
 1259 0174 23F0A003 		bic	r3, r3, #160
 1260 0178 5360     		str	r3, [r2, #4]
 1261 017a B2E7     		b	.L108
 1262              	.LVL52:
 1263              	.L123:
 507:Drivers/STM32F4xx_HAL_Driver/Src/stm32f4xx_hal_i2s_ex.c **** 
 1264              		.loc 1 507 5 discriminator 1 view .LVU437
 1265 017c 074A     		ldr	r2, .L126+4
 1266              	.LVL53:
 507:Drivers/STM32F4xx_HAL_Driver/Src/stm32f4xx_hal_i2s_ex.c **** 
ARM GAS  /tmp/ccQYaWvF.s 			page 50


 1267              		.loc 1 507 5 discriminator 1 view .LVU438
 1268 017e CDE7     		b	.L109
 1269              	.LVL54:
 1270              	.L124:
 513:Drivers/STM32F4xx_HAL_Driver/Src/stm32f4xx_hal_i2s_ex.c ****     hi2s->TxXferCount--;
 1271              		.loc 1 513 5 discriminator 1 view .LVU439
 1272 0180 A2F58062 		sub	r2, r2, #1024
 1273 0184 E1E7     		b	.L110
 1274              	.L125:
 519:Drivers/STM32F4xx_HAL_Driver/Src/stm32f4xx_hal_i2s_ex.c ****     }
 1275              		.loc 1 519 7 discriminator 1 view .LVU440
 1276 0186 054A     		ldr	r2, .L126+4
 1277 0188 F3E7     		b	.L111
 1278              	.L122:
 525:Drivers/STM32F4xx_HAL_Driver/Src/stm32f4xx_hal_i2s_ex.c **** 
 1279              		.loc 1 525 3 discriminator 1 view .LVU441
 1280 018a 044A     		ldr	r2, .L126+4
 1281 018c B3E7     		b	.L112
 1282              	.LVL55:
 1283              	.L113:
 448:Drivers/STM32F4xx_HAL_Driver/Src/stm32f4xx_hal_i2s_ex.c ****   }
 1284              		.loc 1 448 12 view .LVU442
 1285 018e 0220     		movs	r0, #2
 1286              	.LVL56:
 1287              	.L101:
 531:Drivers/STM32F4xx_HAL_Driver/Src/stm32f4xx_hal_i2s_ex.c **** 
 1288              		.loc 1 531 1 view .LVU443
 1289 0190 5DF804FB 		ldr	pc, [sp], #4
 1290              	.LVL57:
 1291              	.L114:
 457:Drivers/STM32F4xx_HAL_Driver/Src/stm32f4xx_hal_i2s_ex.c **** 
 1292              		.loc 1 457 3 discriminator 1 view .LVU444
 1293 0194 0220     		movs	r0, #2
 1294 0196 FBE7     		b	.L101
 1295              	.L127:
 1296              		.align	2
 1297              	.L126:
 1298 0198 00380040 		.word	1073756160
 1299 019c 00340040 		.word	1073755136
 1300              		.cfi_endproc
 1301              	.LFE135:
 1303              		.section	.text.HAL_I2SEx_TransmitReceive_DMA,"ax",%progbits
 1304              		.align	1
 1305              		.global	HAL_I2SEx_TransmitReceive_DMA
 1306              		.syntax unified
 1307              		.thumb
 1308              		.thumb_func
 1310              	HAL_I2SEx_TransmitReceive_DMA:
 1311              	.LVL58:
 1312              	.LFB136:
 552:Drivers/STM32F4xx_HAL_Driver/Src/stm32f4xx_hal_i2s_ex.c ****   uint32_t *tmp = NULL;
 1313              		.loc 1 552 1 is_stmt 1 view -0
 1314              		.cfi_startproc
 1315              		@ args = 0, pretend = 0, frame = 8
 1316              		@ frame_needed = 0, uses_anonymous_args = 0
 552:Drivers/STM32F4xx_HAL_Driver/Src/stm32f4xx_hal_i2s_ex.c ****   uint32_t *tmp = NULL;
 1317              		.loc 1 552 1 is_stmt 0 view .LVU446
ARM GAS  /tmp/ccQYaWvF.s 			page 51


 1318 0000 70B5     		push	{r4, r5, r6, lr}
 1319              		.cfi_def_cfa_offset 16
 1320              		.cfi_offset 4, -16
 1321              		.cfi_offset 5, -12
 1322              		.cfi_offset 6, -8
 1323              		.cfi_offset 14, -4
 1324 0002 82B0     		sub	sp, sp, #8
 1325              		.cfi_def_cfa_offset 24
 1326 0004 1646     		mov	r6, r2
 553:Drivers/STM32F4xx_HAL_Driver/Src/stm32f4xx_hal_i2s_ex.c ****   uint32_t tmp1 = 0U;
 1327              		.loc 1 553 3 is_stmt 1 view .LVU447
 1328              	.LVL59:
 554:Drivers/STM32F4xx_HAL_Driver/Src/stm32f4xx_hal_i2s_ex.c **** 
 1329              		.loc 1 554 3 view .LVU448
 556:Drivers/STM32F4xx_HAL_Driver/Src/stm32f4xx_hal_i2s_ex.c ****   {
 1330              		.loc 1 556 3 view .LVU449
 556:Drivers/STM32F4xx_HAL_Driver/Src/stm32f4xx_hal_i2s_ex.c ****   {
 1331              		.loc 1 556 11 is_stmt 0 view .LVU450
 1332 0006 90F84120 		ldrb	r2, [r0, #65]	@ zero_extendqisi2
 1333              	.LVL60:
 556:Drivers/STM32F4xx_HAL_Driver/Src/stm32f4xx_hal_i2s_ex.c ****   {
 1334              		.loc 1 556 6 view .LVU451
 1335 000a 012A     		cmp	r2, #1
 1336 000c 40F0BE80 		bne	.L142
 1337 0010 0446     		mov	r4, r0
 1338 0012 0D46     		mov	r5, r1
 1339 0014 D0B2     		uxtb	r0, r2
 1340              	.LVL61:
 561:Drivers/STM32F4xx_HAL_Driver/Src/stm32f4xx_hal_i2s_ex.c ****   {
 1341              		.loc 1 561 3 is_stmt 1 view .LVU452
 561:Drivers/STM32F4xx_HAL_Driver/Src/stm32f4xx_hal_i2s_ex.c ****   {
 1342              		.loc 1 561 6 is_stmt 0 view .LVU453
 1343 0016 0029     		cmp	r1, #0
 1344 0018 00F0B980 		beq	.L129
 561:Drivers/STM32F4xx_HAL_Driver/Src/stm32f4xx_hal_i2s_ex.c ****   {
 1345              		.loc 1 561 25 discriminator 1 view .LVU454
 1346 001c 002E     		cmp	r6, #0
 1347 001e 00F0B680 		beq	.L129
 561:Drivers/STM32F4xx_HAL_Driver/Src/stm32f4xx_hal_i2s_ex.c ****   {
 1348              		.loc 1 561 46 discriminator 2 view .LVU455
 1349 0022 002B     		cmp	r3, #0
 1350 0024 00F0B380 		beq	.L129
 567:Drivers/STM32F4xx_HAL_Driver/Src/stm32f4xx_hal_i2s_ex.c **** 
 1351              		.loc 1 567 3 is_stmt 1 view .LVU456
 567:Drivers/STM32F4xx_HAL_Driver/Src/stm32f4xx_hal_i2s_ex.c **** 
 1352              		.loc 1 567 3 view .LVU457
 1353 0028 94F84020 		ldrb	r2, [r4, #64]	@ zero_extendqisi2
 1354 002c 012A     		cmp	r2, #1
 1355 002e 00F0B080 		beq	.L143
 567:Drivers/STM32F4xx_HAL_Driver/Src/stm32f4xx_hal_i2s_ex.c **** 
 1356              		.loc 1 567 3 discriminator 2 view .LVU458
 1357 0032 0122     		movs	r2, #1
 1358 0034 84F84020 		strb	r2, [r4, #64]
 567:Drivers/STM32F4xx_HAL_Driver/Src/stm32f4xx_hal_i2s_ex.c **** 
 1359              		.loc 1 567 3 view .LVU459
 569:Drivers/STM32F4xx_HAL_Driver/Src/stm32f4xx_hal_i2s_ex.c ****   hi2s->pRxBuffPtr = pRxData;
 1360              		.loc 1 569 3 view .LVU460
ARM GAS  /tmp/ccQYaWvF.s 			page 52


 569:Drivers/STM32F4xx_HAL_Driver/Src/stm32f4xx_hal_i2s_ex.c ****   hi2s->pRxBuffPtr = pRxData;
 1361              		.loc 1 569 20 is_stmt 0 view .LVU461
 1362 0038 6162     		str	r1, [r4, #36]
 570:Drivers/STM32F4xx_HAL_Driver/Src/stm32f4xx_hal_i2s_ex.c **** 
 1363              		.loc 1 570 3 is_stmt 1 view .LVU462
 570:Drivers/STM32F4xx_HAL_Driver/Src/stm32f4xx_hal_i2s_ex.c **** 
 1364              		.loc 1 570 20 is_stmt 0 view .LVU463
 1365 003a E662     		str	r6, [r4, #44]
 572:Drivers/STM32F4xx_HAL_Driver/Src/stm32f4xx_hal_i2s_ex.c ****   /* Check the Data format: When a 16-bit data frame or a 16-bit data frame extended
 1366              		.loc 1 572 3 is_stmt 1 view .LVU464
 572:Drivers/STM32F4xx_HAL_Driver/Src/stm32f4xx_hal_i2s_ex.c ****   /* Check the Data format: When a 16-bit data frame or a 16-bit data frame extended
 1367              		.loc 1 572 14 is_stmt 0 view .LVU465
 1368 003c 2268     		ldr	r2, [r4]
 572:Drivers/STM32F4xx_HAL_Driver/Src/stm32f4xx_hal_i2s_ex.c ****   /* Check the Data format: When a 16-bit data frame or a 16-bit data frame extended
 1369              		.loc 1 572 24 view .LVU466
 1370 003e D269     		ldr	r2, [r2, #28]
 572:Drivers/STM32F4xx_HAL_Driver/Src/stm32f4xx_hal_i2s_ex.c ****   /* Check the Data format: When a 16-bit data frame or a 16-bit data frame extended
 1371              		.loc 1 572 8 view .LVU467
 1372 0040 02F00702 		and	r2, r2, #7
 1373              	.LVL62:
 577:Drivers/STM32F4xx_HAL_Driver/Src/stm32f4xx_hal_i2s_ex.c ****   {
 1374              		.loc 1 577 3 is_stmt 1 view .LVU468
 577:Drivers/STM32F4xx_HAL_Driver/Src/stm32f4xx_hal_i2s_ex.c ****   {
 1375              		.loc 1 577 6 is_stmt 0 view .LVU469
 1376 0044 032A     		cmp	r2, #3
 1377 0046 06D0     		beq	.L130
 577:Drivers/STM32F4xx_HAL_Driver/Src/stm32f4xx_hal_i2s_ex.c ****   {
 1378              		.loc 1 577 36 discriminator 1 view .LVU470
 1379 0048 052A     		cmp	r2, #5
 1380 004a 04D0     		beq	.L130
 586:Drivers/STM32F4xx_HAL_Driver/Src/stm32f4xx_hal_i2s_ex.c ****     hi2s->TxXferCount = Size;
 1381              		.loc 1 586 5 is_stmt 1 view .LVU471
 586:Drivers/STM32F4xx_HAL_Driver/Src/stm32f4xx_hal_i2s_ex.c ****     hi2s->TxXferCount = Size;
 1382              		.loc 1 586 23 is_stmt 0 view .LVU472
 1383 004c 2385     		strh	r3, [r4, #40]	@ movhi
 587:Drivers/STM32F4xx_HAL_Driver/Src/stm32f4xx_hal_i2s_ex.c ****     hi2s->RxXferSize  = Size;
 1384              		.loc 1 587 5 is_stmt 1 view .LVU473
 587:Drivers/STM32F4xx_HAL_Driver/Src/stm32f4xx_hal_i2s_ex.c ****     hi2s->RxXferSize  = Size;
 1385              		.loc 1 587 23 is_stmt 0 view .LVU474
 1386 004e 6385     		strh	r3, [r4, #42]	@ movhi
 588:Drivers/STM32F4xx_HAL_Driver/Src/stm32f4xx_hal_i2s_ex.c ****     hi2s->RxXferCount = Size;
 1387              		.loc 1 588 5 is_stmt 1 view .LVU475
 588:Drivers/STM32F4xx_HAL_Driver/Src/stm32f4xx_hal_i2s_ex.c ****     hi2s->RxXferCount = Size;
 1388              		.loc 1 588 23 is_stmt 0 view .LVU476
 1389 0050 2386     		strh	r3, [r4, #48]	@ movhi
 589:Drivers/STM32F4xx_HAL_Driver/Src/stm32f4xx_hal_i2s_ex.c ****   }
 1390              		.loc 1 589 5 is_stmt 1 view .LVU477
 589:Drivers/STM32F4xx_HAL_Driver/Src/stm32f4xx_hal_i2s_ex.c ****   }
 1391              		.loc 1 589 23 is_stmt 0 view .LVU478
 1392 0052 6386     		strh	r3, [r4, #50]	@ movhi
 1393 0054 05E0     		b	.L132
 1394              	.L130:
 579:Drivers/STM32F4xx_HAL_Driver/Src/stm32f4xx_hal_i2s_ex.c ****     hi2s->TxXferCount = (Size << 1U);
 1395              		.loc 1 579 5 is_stmt 1 view .LVU479
 579:Drivers/STM32F4xx_HAL_Driver/Src/stm32f4xx_hal_i2s_ex.c ****     hi2s->TxXferCount = (Size << 1U);
 1396              		.loc 1 579 31 is_stmt 0 view .LVU480
 1397 0056 5B00     		lsls	r3, r3, #1
ARM GAS  /tmp/ccQYaWvF.s 			page 53


 1398              	.LVL63:
 579:Drivers/STM32F4xx_HAL_Driver/Src/stm32f4xx_hal_i2s_ex.c ****     hi2s->TxXferCount = (Size << 1U);
 1399              		.loc 1 579 31 view .LVU481
 1400 0058 9BB2     		uxth	r3, r3
 579:Drivers/STM32F4xx_HAL_Driver/Src/stm32f4xx_hal_i2s_ex.c ****     hi2s->TxXferCount = (Size << 1U);
 1401              		.loc 1 579 23 view .LVU482
 1402 005a 2385     		strh	r3, [r4, #40]	@ movhi
 580:Drivers/STM32F4xx_HAL_Driver/Src/stm32f4xx_hal_i2s_ex.c ****     hi2s->RxXferSize  = (Size << 1U);
 1403              		.loc 1 580 5 is_stmt 1 view .LVU483
 580:Drivers/STM32F4xx_HAL_Driver/Src/stm32f4xx_hal_i2s_ex.c ****     hi2s->RxXferSize  = (Size << 1U);
 1404              		.loc 1 580 23 is_stmt 0 view .LVU484
 1405 005c 6385     		strh	r3, [r4, #42]	@ movhi
 581:Drivers/STM32F4xx_HAL_Driver/Src/stm32f4xx_hal_i2s_ex.c ****     hi2s->RxXferCount = (Size << 1U);
 1406              		.loc 1 581 5 is_stmt 1 view .LVU485
 581:Drivers/STM32F4xx_HAL_Driver/Src/stm32f4xx_hal_i2s_ex.c ****     hi2s->RxXferCount = (Size << 1U);
 1407              		.loc 1 581 23 is_stmt 0 view .LVU486
 1408 005e 2386     		strh	r3, [r4, #48]	@ movhi
 582:Drivers/STM32F4xx_HAL_Driver/Src/stm32f4xx_hal_i2s_ex.c ****   }
 1409              		.loc 1 582 5 is_stmt 1 view .LVU487
 582:Drivers/STM32F4xx_HAL_Driver/Src/stm32f4xx_hal_i2s_ex.c ****   }
 1410              		.loc 1 582 23 is_stmt 0 view .LVU488
 1411 0060 6386     		strh	r3, [r4, #50]	@ movhi
 1412              	.L132:
 592:Drivers/STM32F4xx_HAL_Driver/Src/stm32f4xx_hal_i2s_ex.c ****   hi2s->State     = HAL_I2S_STATE_BUSY_TX_RX;
 1413              		.loc 1 592 3 is_stmt 1 view .LVU489
 592:Drivers/STM32F4xx_HAL_Driver/Src/stm32f4xx_hal_i2s_ex.c ****   hi2s->State     = HAL_I2S_STATE_BUSY_TX_RX;
 1414              		.loc 1 592 19 is_stmt 0 view .LVU490
 1415 0062 0023     		movs	r3, #0
 1416 0064 6364     		str	r3, [r4, #68]
 593:Drivers/STM32F4xx_HAL_Driver/Src/stm32f4xx_hal_i2s_ex.c **** 
 1417              		.loc 1 593 3 is_stmt 1 view .LVU491
 593:Drivers/STM32F4xx_HAL_Driver/Src/stm32f4xx_hal_i2s_ex.c **** 
 1418              		.loc 1 593 19 is_stmt 0 view .LVU492
 1419 0066 0522     		movs	r2, #5
 1420              	.LVL64:
 593:Drivers/STM32F4xx_HAL_Driver/Src/stm32f4xx_hal_i2s_ex.c **** 
 1421              		.loc 1 593 19 view .LVU493
 1422 0068 84F84120 		strb	r2, [r4, #65]
 596:Drivers/STM32F4xx_HAL_Driver/Src/stm32f4xx_hal_i2s_ex.c **** 
 1423              		.loc 1 596 3 is_stmt 1 view .LVU494
 596:Drivers/STM32F4xx_HAL_Driver/Src/stm32f4xx_hal_i2s_ex.c **** 
 1424              		.loc 1 596 7 is_stmt 0 view .LVU495
 1425 006c E26B     		ldr	r2, [r4, #60]
 596:Drivers/STM32F4xx_HAL_Driver/Src/stm32f4xx_hal_i2s_ex.c **** 
 1426              		.loc 1 596 38 view .LVU496
 1427 006e 4B49     		ldr	r1, .L157
 1428              	.LVL65:
 596:Drivers/STM32F4xx_HAL_Driver/Src/stm32f4xx_hal_i2s_ex.c **** 
 1429              		.loc 1 596 38 view .LVU497
 1430 0070 1164     		str	r1, [r2, #64]
 599:Drivers/STM32F4xx_HAL_Driver/Src/stm32f4xx_hal_i2s_ex.c **** 
 1431              		.loc 1 599 3 is_stmt 1 view .LVU498
 599:Drivers/STM32F4xx_HAL_Driver/Src/stm32f4xx_hal_i2s_ex.c **** 
 1432              		.loc 1 599 7 is_stmt 0 view .LVU499
 1433 0072 E26B     		ldr	r2, [r4, #60]
 599:Drivers/STM32F4xx_HAL_Driver/Src/stm32f4xx_hal_i2s_ex.c **** 
 1434              		.loc 1 599 35 view .LVU500
ARM GAS  /tmp/ccQYaWvF.s 			page 54


 1435 0074 4A49     		ldr	r1, .L157+4
 1436 0076 D163     		str	r1, [r2, #60]
 602:Drivers/STM32F4xx_HAL_Driver/Src/stm32f4xx_hal_i2s_ex.c **** 
 1437              		.loc 1 602 3 is_stmt 1 view .LVU501
 602:Drivers/STM32F4xx_HAL_Driver/Src/stm32f4xx_hal_i2s_ex.c **** 
 1438              		.loc 1 602 7 is_stmt 0 view .LVU502
 1439 0078 E16B     		ldr	r1, [r4, #60]
 602:Drivers/STM32F4xx_HAL_Driver/Src/stm32f4xx_hal_i2s_ex.c **** 
 1440              		.loc 1 602 35 view .LVU503
 1441 007a 4A4A     		ldr	r2, .L157+8
 1442 007c CA64     		str	r2, [r1, #76]
 605:Drivers/STM32F4xx_HAL_Driver/Src/stm32f4xx_hal_i2s_ex.c **** 
 1443              		.loc 1 605 3 is_stmt 1 view .LVU504
 605:Drivers/STM32F4xx_HAL_Driver/Src/stm32f4xx_hal_i2s_ex.c **** 
 1444              		.loc 1 605 7 is_stmt 0 view .LVU505
 1445 007e A16B     		ldr	r1, [r4, #56]
 605:Drivers/STM32F4xx_HAL_Driver/Src/stm32f4xx_hal_i2s_ex.c **** 
 1446              		.loc 1 605 39 view .LVU506
 1447 0080 0B64     		str	r3, [r1, #64]
 608:Drivers/STM32F4xx_HAL_Driver/Src/stm32f4xx_hal_i2s_ex.c **** 
 1448              		.loc 1 608 3 is_stmt 1 view .LVU507
 608:Drivers/STM32F4xx_HAL_Driver/Src/stm32f4xx_hal_i2s_ex.c **** 
 1449              		.loc 1 608 7 is_stmt 0 view .LVU508
 1450 0082 A16B     		ldr	r1, [r4, #56]
 608:Drivers/STM32F4xx_HAL_Driver/Src/stm32f4xx_hal_i2s_ex.c **** 
 1451              		.loc 1 608 35 view .LVU509
 1452 0084 CB63     		str	r3, [r1, #60]
 611:Drivers/STM32F4xx_HAL_Driver/Src/stm32f4xx_hal_i2s_ex.c **** 
 1453              		.loc 1 611 3 is_stmt 1 view .LVU510
 611:Drivers/STM32F4xx_HAL_Driver/Src/stm32f4xx_hal_i2s_ex.c **** 
 1454              		.loc 1 611 7 is_stmt 0 view .LVU511
 1455 0086 A36B     		ldr	r3, [r4, #56]
 611:Drivers/STM32F4xx_HAL_Driver/Src/stm32f4xx_hal_i2s_ex.c **** 
 1456              		.loc 1 611 35 view .LVU512
 1457 0088 DA64     		str	r2, [r3, #76]
 613:Drivers/STM32F4xx_HAL_Driver/Src/stm32f4xx_hal_i2s_ex.c ****   /* Check if the I2S_MODE_MASTER_TX or I2S_MODE_SLAVE_TX Mode is selected */
 1458              		.loc 1 613 3 is_stmt 1 view .LVU513
 613:Drivers/STM32F4xx_HAL_Driver/Src/stm32f4xx_hal_i2s_ex.c ****   /* Check if the I2S_MODE_MASTER_TX or I2S_MODE_SLAVE_TX Mode is selected */
 1459              		.loc 1 613 14 is_stmt 0 view .LVU514
 1460 008a 2268     		ldr	r2, [r4]
 613:Drivers/STM32F4xx_HAL_Driver/Src/stm32f4xx_hal_i2s_ex.c ****   /* Check if the I2S_MODE_MASTER_TX or I2S_MODE_SLAVE_TX Mode is selected */
 1461              		.loc 1 613 24 view .LVU515
 1462 008c D369     		ldr	r3, [r2, #28]
 613:Drivers/STM32F4xx_HAL_Driver/Src/stm32f4xx_hal_i2s_ex.c ****   /* Check if the I2S_MODE_MASTER_TX or I2S_MODE_SLAVE_TX Mode is selected */
 1463              		.loc 1 613 8 view .LVU516
 1464 008e 03F44073 		and	r3, r3, #768
 1465              	.LVL66:
 615:Drivers/STM32F4xx_HAL_Driver/Src/stm32f4xx_hal_i2s_ex.c ****   {
 1466              		.loc 1 615 3 is_stmt 1 view .LVU517
 615:Drivers/STM32F4xx_HAL_Driver/Src/stm32f4xx_hal_i2s_ex.c ****   {
 1467              		.loc 1 615 6 is_stmt 0 view .LVU518
 1468 0092 B3F5007F 		cmp	r3, #512
 1469 0096 01D0     		beq	.L133
 615:Drivers/STM32F4xx_HAL_Driver/Src/stm32f4xx_hal_i2s_ex.c ****   {
 1470              		.loc 1 615 36 discriminator 1 view .LVU519
 1471 0098 002B     		cmp	r3, #0
 1472 009a 3ED1     		bne	.L134
ARM GAS  /tmp/ccQYaWvF.s 			page 55


 1473              	.L133:
 618:Drivers/STM32F4xx_HAL_Driver/Src/stm32f4xx_hal_i2s_ex.c ****     HAL_DMA_Start_IT(hi2s->hdmarx, (uint32_t)&I2SxEXT(hi2s->Instance)->DR, *(uint32_t *)tmp, hi2s->
 1474              		.loc 1 618 5 is_stmt 1 view .LVU520
 1475              	.LVL67:
 619:Drivers/STM32F4xx_HAL_Driver/Src/stm32f4xx_hal_i2s_ex.c **** 
 1476              		.loc 1 619 5 view .LVU521
 1477 009c E06B     		ldr	r0, [r4, #60]
 619:Drivers/STM32F4xx_HAL_Driver/Src/stm32f4xx_hal_i2s_ex.c **** 
 1478              		.loc 1 619 47 is_stmt 0 view .LVU522
 1479 009e 424B     		ldr	r3, .L157+12
 1480              	.LVL68:
 619:Drivers/STM32F4xx_HAL_Driver/Src/stm32f4xx_hal_i2s_ex.c **** 
 1481              		.loc 1 619 47 view .LVU523
 1482 00a0 9A42     		cmp	r2, r3
 1483 00a2 36D0     		beq	.L151
 619:Drivers/STM32F4xx_HAL_Driver/Src/stm32f4xx_hal_i2s_ex.c **** 
 1484              		.loc 1 619 47 discriminator 2 view .LVU524
 1485 00a4 4FF04021 		mov	r1, #1073758208
 1486              	.L135:
 619:Drivers/STM32F4xx_HAL_Driver/Src/stm32f4xx_hal_i2s_ex.c **** 
 1487              		.loc 1 619 98 discriminator 4 view .LVU525
 1488 00a8 238E     		ldrh	r3, [r4, #48]
 619:Drivers/STM32F4xx_HAL_Driver/Src/stm32f4xx_hal_i2s_ex.c **** 
 1489              		.loc 1 619 5 discriminator 4 view .LVU526
 1490 00aa 9BB2     		uxth	r3, r3
 1491 00ac 3246     		mov	r2, r6
 1492 00ae 0C31     		adds	r1, r1, #12
 1493 00b0 FFF7FEFF 		bl	HAL_DMA_Start_IT
 1494              	.LVL69:
 622:Drivers/STM32F4xx_HAL_Driver/Src/stm32f4xx_hal_i2s_ex.c **** 
 1495              		.loc 1 622 5 is_stmt 1 view .LVU527
 1496 00b4 2268     		ldr	r2, [r4]
 1497 00b6 3C4B     		ldr	r3, .L157+12
 1498 00b8 9A42     		cmp	r2, r3
 1499 00ba 2CD0     		beq	.L152
 622:Drivers/STM32F4xx_HAL_Driver/Src/stm32f4xx_hal_i2s_ex.c **** 
 1500              		.loc 1 622 5 is_stmt 0 discriminator 2 view .LVU528
 1501 00bc 4FF04022 		mov	r2, #1073758208
 1502              	.L136:
 622:Drivers/STM32F4xx_HAL_Driver/Src/stm32f4xx_hal_i2s_ex.c **** 
 1503              		.loc 1 622 5 discriminator 4 view .LVU529
 1504 00c0 5368     		ldr	r3, [r2, #4]
 622:Drivers/STM32F4xx_HAL_Driver/Src/stm32f4xx_hal_i2s_ex.c **** 
 1505              		.loc 1 622 5 discriminator 8 view .LVU530
 1506 00c2 43F00103 		orr	r3, r3, #1
 1507 00c6 5360     		str	r3, [r2, #4]
 625:Drivers/STM32F4xx_HAL_Driver/Src/stm32f4xx_hal_i2s_ex.c ****     HAL_DMA_Start_IT(hi2s->hdmatx, *(uint32_t *)tmp, (uint32_t)&hi2s->Instance->DR, hi2s->TxXferSiz
 1508              		.loc 1 625 5 is_stmt 1 view .LVU531
 1509              	.LVL70:
 626:Drivers/STM32F4xx_HAL_Driver/Src/stm32f4xx_hal_i2s_ex.c **** 
 1510              		.loc 1 626 5 view .LVU532
 626:Drivers/STM32F4xx_HAL_Driver/Src/stm32f4xx_hal_i2s_ex.c **** 
 1511              		.loc 1 626 69 is_stmt 0 view .LVU533
 1512 00c8 2268     		ldr	r2, [r4]
 626:Drivers/STM32F4xx_HAL_Driver/Src/stm32f4xx_hal_i2s_ex.c **** 
 1513              		.loc 1 626 89 view .LVU534
 1514 00ca 238D     		ldrh	r3, [r4, #40]
ARM GAS  /tmp/ccQYaWvF.s 			page 56


 626:Drivers/STM32F4xx_HAL_Driver/Src/stm32f4xx_hal_i2s_ex.c **** 
 1515              		.loc 1 626 5 view .LVU535
 1516 00cc 9BB2     		uxth	r3, r3
 1517 00ce 0C32     		adds	r2, r2, #12
 1518 00d0 2946     		mov	r1, r5
 1519 00d2 A06B     		ldr	r0, [r4, #56]
 1520 00d4 FFF7FEFF 		bl	HAL_DMA_Start_IT
 1521              	.LVL71:
 629:Drivers/STM32F4xx_HAL_Driver/Src/stm32f4xx_hal_i2s_ex.c ****   }
 1522              		.loc 1 629 5 is_stmt 1 view .LVU536
 1523 00d8 2268     		ldr	r2, [r4]
 1524 00da 5368     		ldr	r3, [r2, #4]
 1525 00dc 43F00203 		orr	r3, r3, #2
 1526 00e0 5360     		str	r3, [r2, #4]
 1527              	.LVL72:
 1528              	.L137:
 655:Drivers/STM32F4xx_HAL_Driver/Src/stm32f4xx_hal_i2s_ex.c ****   /* Check if the I2S is already enabled */
 1529              		.loc 1 655 3 view .LVU537
 655:Drivers/STM32F4xx_HAL_Driver/Src/stm32f4xx_hal_i2s_ex.c ****   /* Check if the I2S is already enabled */
 1530              		.loc 1 655 3 view .LVU538
 1531 00e2 0023     		movs	r3, #0
 1532 00e4 84F84030 		strb	r3, [r4, #64]
 655:Drivers/STM32F4xx_HAL_Driver/Src/stm32f4xx_hal_i2s_ex.c ****   /* Check if the I2S is already enabled */
 1533              		.loc 1 655 3 view .LVU539
 657:Drivers/STM32F4xx_HAL_Driver/Src/stm32f4xx_hal_i2s_ex.c ****   {
 1534              		.loc 1 657 3 view .LVU540
 657:Drivers/STM32F4xx_HAL_Driver/Src/stm32f4xx_hal_i2s_ex.c ****   {
 1535              		.loc 1 657 12 is_stmt 0 view .LVU541
 1536 00e8 2368     		ldr	r3, [r4]
 657:Drivers/STM32F4xx_HAL_Driver/Src/stm32f4xx_hal_i2s_ex.c ****   {
 1537              		.loc 1 657 22 view .LVU542
 1538 00ea DA69     		ldr	r2, [r3, #28]
 657:Drivers/STM32F4xx_HAL_Driver/Src/stm32f4xx_hal_i2s_ex.c ****   {
 1539              		.loc 1 657 6 view .LVU543
 1540 00ec 12F4806F 		tst	r2, #1024
 1541 00f0 51D1     		bne	.L148
 660:Drivers/STM32F4xx_HAL_Driver/Src/stm32f4xx_hal_i2s_ex.c ****     /* Enable I2S peripheral before the I2Sext */
 1542              		.loc 1 660 5 is_stmt 1 view .LVU544
 1543 00f2 2D4A     		ldr	r2, .L157+12
 1544 00f4 9342     		cmp	r3, r2
 1545 00f6 46D0     		beq	.L153
 660:Drivers/STM32F4xx_HAL_Driver/Src/stm32f4xx_hal_i2s_ex.c ****     /* Enable I2S peripheral before the I2Sext */
 1546              		.loc 1 660 5 is_stmt 0 discriminator 2 view .LVU545
 1547 00f8 4FF04022 		mov	r2, #1073758208
 1548              	.L141:
 660:Drivers/STM32F4xx_HAL_Driver/Src/stm32f4xx_hal_i2s_ex.c ****     /* Enable I2S peripheral before the I2Sext */
 1549              		.loc 1 660 5 discriminator 4 view .LVU546
 1550 00fc D369     		ldr	r3, [r2, #28]
 660:Drivers/STM32F4xx_HAL_Driver/Src/stm32f4xx_hal_i2s_ex.c ****     /* Enable I2S peripheral before the I2Sext */
 1551              		.loc 1 660 5 discriminator 8 view .LVU547
 1552 00fe 43F48063 		orr	r3, r3, #1024
 1553 0102 D361     		str	r3, [r2, #28]
 662:Drivers/STM32F4xx_HAL_Driver/Src/stm32f4xx_hal_i2s_ex.c ****   }
 1554              		.loc 1 662 5 is_stmt 1 view .LVU548
 1555 0104 2268     		ldr	r2, [r4]
 1556 0106 D369     		ldr	r3, [r2, #28]
 1557 0108 43F48063 		orr	r3, r3, #1024
ARM GAS  /tmp/ccQYaWvF.s 			page 57


 1558 010c D361     		str	r3, [r2, #28]
 665:Drivers/STM32F4xx_HAL_Driver/Src/stm32f4xx_hal_i2s_ex.c **** }
 1559              		.loc 1 665 10 is_stmt 0 view .LVU549
 1560 010e 0020     		movs	r0, #0
 1561 0110 3DE0     		b	.L129
 1562              	.LVL73:
 1563              	.L151:
 619:Drivers/STM32F4xx_HAL_Driver/Src/stm32f4xx_hal_i2s_ex.c **** 
 1564              		.loc 1 619 47 discriminator 1 view .LVU550
 1565 0112 2649     		ldr	r1, .L157+16
 1566 0114 C8E7     		b	.L135
 1567              	.L152:
 622:Drivers/STM32F4xx_HAL_Driver/Src/stm32f4xx_hal_i2s_ex.c **** 
 1568              		.loc 1 622 5 discriminator 1 view .LVU551
 1569 0116 254A     		ldr	r2, .L157+16
 1570 0118 D2E7     		b	.L136
 1571              	.LVL74:
 1572              	.L134:
 634:Drivers/STM32F4xx_HAL_Driver/Src/stm32f4xx_hal_i2s_ex.c ****     {
 1573              		.loc 1 634 5 is_stmt 1 view .LVU552
 634:Drivers/STM32F4xx_HAL_Driver/Src/stm32f4xx_hal_i2s_ex.c ****     {
 1574              		.loc 1 634 24 is_stmt 0 view .LVU553
 1575 011a D369     		ldr	r3, [r2, #28]
 1576              	.LVL75:
 634:Drivers/STM32F4xx_HAL_Driver/Src/stm32f4xx_hal_i2s_ex.c ****     {
 1577              		.loc 1 634 34 view .LVU554
 1578 011c 03F44073 		and	r3, r3, #768
 634:Drivers/STM32F4xx_HAL_Driver/Src/stm32f4xx_hal_i2s_ex.c ****     {
 1579              		.loc 1 634 8 view .LVU555
 1580 0120 B3F5407F 		cmp	r3, #768
 1581 0124 23D0     		beq	.L154
 1582              	.L138:
 638:Drivers/STM32F4xx_HAL_Driver/Src/stm32f4xx_hal_i2s_ex.c ****     }
 1583              		.loc 1 638 7 is_stmt 1 discriminator 1 view .LVU556
 641:Drivers/STM32F4xx_HAL_Driver/Src/stm32f4xx_hal_i2s_ex.c ****     HAL_DMA_Start_IT(hi2s->hdmatx, *(uint32_t *)tmp, (uint32_t)&I2SxEXT(hi2s->Instance)->DR, hi2s->
 1584              		.loc 1 641 5 view .LVU557
 1585              	.LVL76:
 642:Drivers/STM32F4xx_HAL_Driver/Src/stm32f4xx_hal_i2s_ex.c **** 
 1586              		.loc 1 642 5 view .LVU558
 1587 0126 A06B     		ldr	r0, [r4, #56]
 642:Drivers/STM32F4xx_HAL_Driver/Src/stm32f4xx_hal_i2s_ex.c **** 
 1588              		.loc 1 642 65 is_stmt 0 view .LVU559
 1589 0128 1F4B     		ldr	r3, .L157+12
 1590 012a 9A42     		cmp	r2, r3
 1591 012c 27D0     		beq	.L155
 642:Drivers/STM32F4xx_HAL_Driver/Src/stm32f4xx_hal_i2s_ex.c **** 
 1592              		.loc 1 642 65 discriminator 2 view .LVU560
 1593 012e 4FF04022 		mov	r2, #1073758208
 1594              	.L139:
 642:Drivers/STM32F4xx_HAL_Driver/Src/stm32f4xx_hal_i2s_ex.c **** 
 1595              		.loc 1 642 98 discriminator 4 view .LVU561
 1596 0132 238D     		ldrh	r3, [r4, #40]
 642:Drivers/STM32F4xx_HAL_Driver/Src/stm32f4xx_hal_i2s_ex.c **** 
 1597              		.loc 1 642 5 discriminator 4 view .LVU562
 1598 0134 9BB2     		uxth	r3, r3
 1599 0136 0C32     		adds	r2, r2, #12
 1600 0138 2946     		mov	r1, r5
ARM GAS  /tmp/ccQYaWvF.s 			page 58


 1601 013a FFF7FEFF 		bl	HAL_DMA_Start_IT
 1602              	.LVL77:
 645:Drivers/STM32F4xx_HAL_Driver/Src/stm32f4xx_hal_i2s_ex.c **** 
 1603              		.loc 1 645 5 is_stmt 1 view .LVU563
 1604 013e 2268     		ldr	r2, [r4]
 1605 0140 194B     		ldr	r3, .L157+12
 1606 0142 9A42     		cmp	r2, r3
 1607 0144 1DD0     		beq	.L156
 645:Drivers/STM32F4xx_HAL_Driver/Src/stm32f4xx_hal_i2s_ex.c **** 
 1608              		.loc 1 645 5 is_stmt 0 discriminator 2 view .LVU564
 1609 0146 4FF04022 		mov	r2, #1073758208
 1610              	.L140:
 645:Drivers/STM32F4xx_HAL_Driver/Src/stm32f4xx_hal_i2s_ex.c **** 
 1611              		.loc 1 645 5 discriminator 4 view .LVU565
 1612 014a 5368     		ldr	r3, [r2, #4]
 645:Drivers/STM32F4xx_HAL_Driver/Src/stm32f4xx_hal_i2s_ex.c **** 
 1613              		.loc 1 645 5 discriminator 8 view .LVU566
 1614 014c 43F00203 		orr	r3, r3, #2
 1615 0150 5360     		str	r3, [r2, #4]
 648:Drivers/STM32F4xx_HAL_Driver/Src/stm32f4xx_hal_i2s_ex.c ****     HAL_DMA_Start_IT(hi2s->hdmarx, (uint32_t)&hi2s->Instance->DR, *(uint32_t *)tmp, hi2s->RxXferSiz
 1616              		.loc 1 648 5 is_stmt 1 view .LVU567
 1617              	.LVL78:
 649:Drivers/STM32F4xx_HAL_Driver/Src/stm32f4xx_hal_i2s_ex.c **** 
 1618              		.loc 1 649 5 view .LVU568
 649:Drivers/STM32F4xx_HAL_Driver/Src/stm32f4xx_hal_i2s_ex.c **** 
 1619              		.loc 1 649 51 is_stmt 0 view .LVU569
 1620 0152 2168     		ldr	r1, [r4]
 649:Drivers/STM32F4xx_HAL_Driver/Src/stm32f4xx_hal_i2s_ex.c **** 
 1621              		.loc 1 649 89 view .LVU570
 1622 0154 238E     		ldrh	r3, [r4, #48]
 649:Drivers/STM32F4xx_HAL_Driver/Src/stm32f4xx_hal_i2s_ex.c **** 
 1623              		.loc 1 649 5 view .LVU571
 1624 0156 9BB2     		uxth	r3, r3
 1625 0158 3246     		mov	r2, r6
 1626 015a 0C31     		adds	r1, r1, #12
 1627 015c E06B     		ldr	r0, [r4, #60]
 1628 015e FFF7FEFF 		bl	HAL_DMA_Start_IT
 1629              	.LVL79:
 652:Drivers/STM32F4xx_HAL_Driver/Src/stm32f4xx_hal_i2s_ex.c ****   }
 1630              		.loc 1 652 5 is_stmt 1 view .LVU572
 1631 0162 2268     		ldr	r2, [r4]
 1632 0164 5368     		ldr	r3, [r2, #4]
 1633 0166 43F00103 		orr	r3, r3, #1
 1634 016a 5360     		str	r3, [r2, #4]
 1635 016c B9E7     		b	.L137
 1636              	.LVL80:
 1637              	.L154:
 638:Drivers/STM32F4xx_HAL_Driver/Src/stm32f4xx_hal_i2s_ex.c ****     }
 1638              		.loc 1 638 7 view .LVU573
 1639              	.LBB9:
 638:Drivers/STM32F4xx_HAL_Driver/Src/stm32f4xx_hal_i2s_ex.c ****     }
 1640              		.loc 1 638 7 view .LVU574
 1641 016e 0023     		movs	r3, #0
 1642 0170 0193     		str	r3, [sp, #4]
 638:Drivers/STM32F4xx_HAL_Driver/Src/stm32f4xx_hal_i2s_ex.c ****     }
 1643              		.loc 1 638 7 view .LVU575
 1644 0172 D368     		ldr	r3, [r2, #12]
ARM GAS  /tmp/ccQYaWvF.s 			page 59


 1645 0174 0193     		str	r3, [sp, #4]
 638:Drivers/STM32F4xx_HAL_Driver/Src/stm32f4xx_hal_i2s_ex.c ****     }
 1646              		.loc 1 638 7 view .LVU576
 1647 0176 9368     		ldr	r3, [r2, #8]
 1648 0178 0193     		str	r3, [sp, #4]
 638:Drivers/STM32F4xx_HAL_Driver/Src/stm32f4xx_hal_i2s_ex.c ****     }
 1649              		.loc 1 638 7 view .LVU577
 1650 017a 019B     		ldr	r3, [sp, #4]
 1651 017c D3E7     		b	.L138
 1652              	.LVL81:
 1653              	.L155:
 638:Drivers/STM32F4xx_HAL_Driver/Src/stm32f4xx_hal_i2s_ex.c ****     }
 1654              		.loc 1 638 7 is_stmt 0 view .LVU578
 1655              	.LBE9:
 642:Drivers/STM32F4xx_HAL_Driver/Src/stm32f4xx_hal_i2s_ex.c **** 
 1656              		.loc 1 642 65 discriminator 1 view .LVU579
 1657 017e 0B4A     		ldr	r2, .L157+16
 1658 0180 D7E7     		b	.L139
 1659              	.L156:
 645:Drivers/STM32F4xx_HAL_Driver/Src/stm32f4xx_hal_i2s_ex.c **** 
 1660              		.loc 1 645 5 discriminator 1 view .LVU580
 1661 0182 0A4A     		ldr	r2, .L157+16
 1662 0184 E1E7     		b	.L140
 1663              	.LVL82:
 1664              	.L153:
 660:Drivers/STM32F4xx_HAL_Driver/Src/stm32f4xx_hal_i2s_ex.c ****     /* Enable I2S peripheral before the I2Sext */
 1665              		.loc 1 660 5 discriminator 1 view .LVU581
 1666 0186 A2F58062 		sub	r2, r2, #1024
 1667 018a B7E7     		b	.L141
 1668              	.LVL83:
 1669              	.L142:
 558:Drivers/STM32F4xx_HAL_Driver/Src/stm32f4xx_hal_i2s_ex.c ****   }
 1670              		.loc 1 558 12 view .LVU582
 1671 018c 0220     		movs	r0, #2
 1672              	.LVL84:
 1673              	.L129:
 666:Drivers/STM32F4xx_HAL_Driver/Src/stm32f4xx_hal_i2s_ex.c **** 
 1674              		.loc 1 666 1 view .LVU583
 1675 018e 02B0     		add	sp, sp, #8
 1676              		.cfi_remember_state
 1677              		.cfi_def_cfa_offset 16
 1678              		@ sp needed
 1679 0190 70BD     		pop	{r4, r5, r6, pc}
 1680              	.LVL85:
 1681              	.L143:
 1682              		.cfi_restore_state
 567:Drivers/STM32F4xx_HAL_Driver/Src/stm32f4xx_hal_i2s_ex.c **** 
 1683              		.loc 1 567 3 discriminator 1 view .LVU584
 1684 0192 0220     		movs	r0, #2
 1685 0194 FBE7     		b	.L129
 1686              	.LVL86:
 1687              	.L148:
 665:Drivers/STM32F4xx_HAL_Driver/Src/stm32f4xx_hal_i2s_ex.c **** }
 1688              		.loc 1 665 10 view .LVU585
 1689 0196 0020     		movs	r0, #0
 1690 0198 F9E7     		b	.L129
 1691              	.L158:
ARM GAS  /tmp/ccQYaWvF.s 			page 60


 1692 019a 00BF     		.align	2
 1693              	.L157:
 1694 019c 00000000 		.word	I2SEx_TxRxDMAHalfCplt
 1695 01a0 00000000 		.word	I2SEx_TxRxDMACplt
 1696 01a4 00000000 		.word	I2SEx_TxRxDMAError
 1697 01a8 00380040 		.word	1073756160
 1698 01ac 00340040 		.word	1073755136
 1699              		.cfi_endproc
 1700              	.LFE136:
 1702              		.section	.text.HAL_I2SEx_TxRxHalfCpltCallback,"ax",%progbits
 1703              		.align	1
 1704              		.weak	HAL_I2SEx_TxRxHalfCpltCallback
 1705              		.syntax unified
 1706              		.thumb
 1707              		.thumb_func
 1709              	HAL_I2SEx_TxRxHalfCpltCallback:
 1710              	.LVL87:
 1711              	.LFB138:
 820:Drivers/STM32F4xx_HAL_Driver/Src/stm32f4xx_hal_i2s_ex.c ****   /* Prevent unused argument(s) compilation warning */
 1712              		.loc 1 820 1 is_stmt 1 view -0
 1713              		.cfi_startproc
 1714              		@ args = 0, pretend = 0, frame = 0
 1715              		@ frame_needed = 0, uses_anonymous_args = 0
 1716              		@ link register save eliminated.
 822:Drivers/STM32F4xx_HAL_Driver/Src/stm32f4xx_hal_i2s_ex.c **** 
 1717              		.loc 1 822 3 view .LVU587
 827:Drivers/STM32F4xx_HAL_Driver/Src/stm32f4xx_hal_i2s_ex.c **** 
 1718              		.loc 1 827 1 is_stmt 0 view .LVU588
 1719 0000 7047     		bx	lr
 1720              		.cfi_endproc
 1721              	.LFE138:
 1723              		.section	.text.I2SEx_TxRxDMAHalfCplt,"ax",%progbits
 1724              		.align	1
 1725              		.syntax unified
 1726              		.thumb
 1727              		.thumb_func
 1729              	I2SEx_TxRxDMAHalfCplt:
 1730              	.LVL88:
 1731              	.LFB140:
 863:Drivers/STM32F4xx_HAL_Driver/Src/stm32f4xx_hal_i2s_ex.c ****   I2S_HandleTypeDef *hi2s = (I2S_HandleTypeDef *)((DMA_HandleTypeDef *)hdma)->Parent;
 1732              		.loc 1 863 1 is_stmt 1 view -0
 1733              		.cfi_startproc
 1734              		@ args = 0, pretend = 0, frame = 0
 1735              		@ frame_needed = 0, uses_anonymous_args = 0
 863:Drivers/STM32F4xx_HAL_Driver/Src/stm32f4xx_hal_i2s_ex.c ****   I2S_HandleTypeDef *hi2s = (I2S_HandleTypeDef *)((DMA_HandleTypeDef *)hdma)->Parent;
 1736              		.loc 1 863 1 is_stmt 0 view .LVU590
 1737 0000 08B5     		push	{r3, lr}
 1738              		.cfi_def_cfa_offset 8
 1739              		.cfi_offset 3, -8
 1740              		.cfi_offset 14, -4
 864:Drivers/STM32F4xx_HAL_Driver/Src/stm32f4xx_hal_i2s_ex.c **** 
 1741              		.loc 1 864 3 is_stmt 1 view .LVU591
 1742              	.LVL89:
 870:Drivers/STM32F4xx_HAL_Driver/Src/stm32f4xx_hal_i2s_ex.c **** #endif /* USE_HAL_I2S_REGISTER_CALLBACKS */
 1743              		.loc 1 870 3 view .LVU592
 1744 0002 806B     		ldr	r0, [r0, #56]
 1745              	.LVL90:
ARM GAS  /tmp/ccQYaWvF.s 			page 61


 870:Drivers/STM32F4xx_HAL_Driver/Src/stm32f4xx_hal_i2s_ex.c **** #endif /* USE_HAL_I2S_REGISTER_CALLBACKS */
 1746              		.loc 1 870 3 is_stmt 0 view .LVU593
 1747 0004 FFF7FEFF 		bl	HAL_I2SEx_TxRxHalfCpltCallback
 1748              	.LVL91:
 872:Drivers/STM32F4xx_HAL_Driver/Src/stm32f4xx_hal_i2s_ex.c **** 
 1749              		.loc 1 872 1 view .LVU594
 1750 0008 08BD     		pop	{r3, pc}
 1751              		.cfi_endproc
 1752              	.LFE140:
 1754              		.section	.text.HAL_I2SEx_TxRxCpltCallback,"ax",%progbits
 1755              		.align	1
 1756              		.weak	HAL_I2SEx_TxRxCpltCallback
 1757              		.syntax unified
 1758              		.thumb
 1759              		.thumb_func
 1761              	HAL_I2SEx_TxRxCpltCallback:
 1762              	.LVL92:
 1763              	.LFB139:
 835:Drivers/STM32F4xx_HAL_Driver/Src/stm32f4xx_hal_i2s_ex.c ****   /* Prevent unused argument(s) compilation warning */
 1764              		.loc 1 835 1 is_stmt 1 view -0
 1765              		.cfi_startproc
 1766              		@ args = 0, pretend = 0, frame = 0
 1767              		@ frame_needed = 0, uses_anonymous_args = 0
 1768              		@ link register save eliminated.
 837:Drivers/STM32F4xx_HAL_Driver/Src/stm32f4xx_hal_i2s_ex.c **** 
 1769              		.loc 1 837 3 view .LVU596
 842:Drivers/STM32F4xx_HAL_Driver/Src/stm32f4xx_hal_i2s_ex.c **** 
 1770              		.loc 1 842 1 is_stmt 0 view .LVU597
 1771 0000 7047     		bx	lr
 1772              		.cfi_endproc
 1773              	.LFE139:
 1775              		.section	.text.I2SEx_TxRxDMACplt,"ax",%progbits
 1776              		.align	1
 1777              		.syntax unified
 1778              		.thumb
 1779              		.thumb_func
 1781              	I2SEx_TxRxDMACplt:
 1782              	.LVL93:
 1783              	.LFB141:
 881:Drivers/STM32F4xx_HAL_Driver/Src/stm32f4xx_hal_i2s_ex.c ****   I2S_HandleTypeDef *hi2s = (I2S_HandleTypeDef *)((DMA_HandleTypeDef *)hdma)->Parent;
 1784              		.loc 1 881 1 is_stmt 1 view -0
 1785              		.cfi_startproc
 1786              		@ args = 0, pretend = 0, frame = 0
 1787              		@ frame_needed = 0, uses_anonymous_args = 0
 881:Drivers/STM32F4xx_HAL_Driver/Src/stm32f4xx_hal_i2s_ex.c ****   I2S_HandleTypeDef *hi2s = (I2S_HandleTypeDef *)((DMA_HandleTypeDef *)hdma)->Parent;
 1788              		.loc 1 881 1 is_stmt 0 view .LVU599
 1789 0000 08B5     		push	{r3, lr}
 1790              		.cfi_def_cfa_offset 8
 1791              		.cfi_offset 3, -8
 1792              		.cfi_offset 14, -4
 1793 0002 0346     		mov	r3, r0
 882:Drivers/STM32F4xx_HAL_Driver/Src/stm32f4xx_hal_i2s_ex.c **** 
 1794              		.loc 1 882 3 is_stmt 1 view .LVU600
 882:Drivers/STM32F4xx_HAL_Driver/Src/stm32f4xx_hal_i2s_ex.c **** 
 1795              		.loc 1 882 22 is_stmt 0 view .LVU601
 1796 0004 806B     		ldr	r0, [r0, #56]
 1797              	.LVL94:
ARM GAS  /tmp/ccQYaWvF.s 			page 62


 885:Drivers/STM32F4xx_HAL_Driver/Src/stm32f4xx_hal_i2s_ex.c ****   {
 1798              		.loc 1 885 3 is_stmt 1 view .LVU602
 885:Drivers/STM32F4xx_HAL_Driver/Src/stm32f4xx_hal_i2s_ex.c ****   {
 1799              		.loc 1 885 17 is_stmt 0 view .LVU603
 1800 0006 DB69     		ldr	r3, [r3, #28]
 1801              	.LVL95:
 885:Drivers/STM32F4xx_HAL_Driver/Src/stm32f4xx_hal_i2s_ex.c ****   {
 1802              		.loc 1 885 6 view .LVU604
 1803 0008 F3B9     		cbnz	r3, .L164
 887:Drivers/STM32F4xx_HAL_Driver/Src/stm32f4xx_hal_i2s_ex.c ****         ((hi2s->Instance->I2SCFGR & SPI_I2SCFGR_I2SCFG) == I2S_MODE_SLAVE_TX))
 1804              		.loc 1 887 5 is_stmt 1 view .LVU605
 887:Drivers/STM32F4xx_HAL_Driver/Src/stm32f4xx_hal_i2s_ex.c ****         ((hi2s->Instance->I2SCFGR & SPI_I2SCFGR_I2SCFG) == I2S_MODE_SLAVE_TX))
 1805              		.loc 1 887 15 is_stmt 0 view .LVU606
 1806 000a 0268     		ldr	r2, [r0]
 887:Drivers/STM32F4xx_HAL_Driver/Src/stm32f4xx_hal_i2s_ex.c ****         ((hi2s->Instance->I2SCFGR & SPI_I2SCFGR_I2SCFG) == I2S_MODE_SLAVE_TX))
 1807              		.loc 1 887 25 view .LVU607
 1808 000c D369     		ldr	r3, [r2, #28]
 887:Drivers/STM32F4xx_HAL_Driver/Src/stm32f4xx_hal_i2s_ex.c ****         ((hi2s->Instance->I2SCFGR & SPI_I2SCFGR_I2SCFG) == I2S_MODE_SLAVE_TX))
 1809              		.loc 1 887 35 view .LVU608
 1810 000e 03F44073 		and	r3, r3, #768
 887:Drivers/STM32F4xx_HAL_Driver/Src/stm32f4xx_hal_i2s_ex.c ****         ((hi2s->Instance->I2SCFGR & SPI_I2SCFGR_I2SCFG) == I2S_MODE_SLAVE_TX))
 1811              		.loc 1 887 8 view .LVU609
 1812 0012 B3F5007F 		cmp	r3, #512
 1813 0016 03D0     		beq	.L165
 888:Drivers/STM32F4xx_HAL_Driver/Src/stm32f4xx_hal_i2s_ex.c ****     /* Disable Tx & Rx DMA Requests */
 1814              		.loc 1 888 25 view .LVU610
 1815 0018 D369     		ldr	r3, [r2, #28]
 887:Drivers/STM32F4xx_HAL_Driver/Src/stm32f4xx_hal_i2s_ex.c ****         ((hi2s->Instance->I2SCFGR & SPI_I2SCFGR_I2SCFG) == I2S_MODE_SLAVE_TX))
 1816              		.loc 1 887 80 discriminator 1 view .LVU611
 1817 001a 13F4407F 		tst	r3, #768
 1818 001e 18D1     		bne	.L166
 1819              	.L165:
 891:Drivers/STM32F4xx_HAL_Driver/Src/stm32f4xx_hal_i2s_ex.c ****       CLEAR_BIT(hi2s->Instance->CR2, SPI_CR2_TXDMAEN);
 1820              		.loc 1 891 7 is_stmt 1 view .LVU612
 1821 0020 144B     		ldr	r3, .L175
 1822 0022 9A42     		cmp	r2, r3
 1823 0024 13D0     		beq	.L173
 891:Drivers/STM32F4xx_HAL_Driver/Src/stm32f4xx_hal_i2s_ex.c ****       CLEAR_BIT(hi2s->Instance->CR2, SPI_CR2_TXDMAEN);
 1824              		.loc 1 891 7 is_stmt 0 discriminator 2 view .LVU613
 1825 0026 4FF04022 		mov	r2, #1073758208
 1826              	.L167:
 891:Drivers/STM32F4xx_HAL_Driver/Src/stm32f4xx_hal_i2s_ex.c ****       CLEAR_BIT(hi2s->Instance->CR2, SPI_CR2_TXDMAEN);
 1827              		.loc 1 891 7 discriminator 4 view .LVU614
 1828 002a 5368     		ldr	r3, [r2, #4]
 891:Drivers/STM32F4xx_HAL_Driver/Src/stm32f4xx_hal_i2s_ex.c ****       CLEAR_BIT(hi2s->Instance->CR2, SPI_CR2_TXDMAEN);
 1829              		.loc 1 891 7 discriminator 8 view .LVU615
 1830 002c 23F00103 		bic	r3, r3, #1
 1831 0030 5360     		str	r3, [r2, #4]
 892:Drivers/STM32F4xx_HAL_Driver/Src/stm32f4xx_hal_i2s_ex.c ****     }
 1832              		.loc 1 892 7 is_stmt 1 view .LVU616
 1833 0032 0268     		ldr	r2, [r0]
 1834 0034 5368     		ldr	r3, [r2, #4]
 1835 0036 23F00203 		bic	r3, r3, #2
 1836 003a 5360     		str	r3, [r2, #4]
 1837              	.L168:
 900:Drivers/STM32F4xx_HAL_Driver/Src/stm32f4xx_hal_i2s_ex.c ****     hi2s->TxXferCount = 0U;
 1838              		.loc 1 900 5 view .LVU617
ARM GAS  /tmp/ccQYaWvF.s 			page 63


 900:Drivers/STM32F4xx_HAL_Driver/Src/stm32f4xx_hal_i2s_ex.c ****     hi2s->TxXferCount = 0U;
 1839              		.loc 1 900 23 is_stmt 0 view .LVU618
 1840 003c 0023     		movs	r3, #0
 1841 003e 4386     		strh	r3, [r0, #50]	@ movhi
 901:Drivers/STM32F4xx_HAL_Driver/Src/stm32f4xx_hal_i2s_ex.c **** 
 1842              		.loc 1 901 5 is_stmt 1 view .LVU619
 901:Drivers/STM32F4xx_HAL_Driver/Src/stm32f4xx_hal_i2s_ex.c **** 
 1843              		.loc 1 901 23 is_stmt 0 view .LVU620
 1844 0040 4385     		strh	r3, [r0, #42]	@ movhi
 903:Drivers/STM32F4xx_HAL_Driver/Src/stm32f4xx_hal_i2s_ex.c ****   }
 1845              		.loc 1 903 5 is_stmt 1 view .LVU621
 903:Drivers/STM32F4xx_HAL_Driver/Src/stm32f4xx_hal_i2s_ex.c ****   }
 1846              		.loc 1 903 17 is_stmt 0 view .LVU622
 1847 0042 0123     		movs	r3, #1
 1848 0044 80F84130 		strb	r3, [r0, #65]
 1849              	.L164:
 910:Drivers/STM32F4xx_HAL_Driver/Src/stm32f4xx_hal_i2s_ex.c **** #endif /* USE_HAL_I2S_REGISTER_CALLBACKS */
 1850              		.loc 1 910 3 is_stmt 1 view .LVU623
 1851 0048 FFF7FEFF 		bl	HAL_I2SEx_TxRxCpltCallback
 1852              	.LVL96:
 912:Drivers/STM32F4xx_HAL_Driver/Src/stm32f4xx_hal_i2s_ex.c **** 
 1853              		.loc 1 912 1 is_stmt 0 view .LVU624
 1854 004c 08BD     		pop	{r3, pc}
 1855              	.LVL97:
 1856              	.L173:
 891:Drivers/STM32F4xx_HAL_Driver/Src/stm32f4xx_hal_i2s_ex.c ****       CLEAR_BIT(hi2s->Instance->CR2, SPI_CR2_TXDMAEN);
 1857              		.loc 1 891 7 discriminator 1 view .LVU625
 1858 004e 0A4A     		ldr	r2, .L175+4
 1859 0050 EBE7     		b	.L167
 1860              	.L166:
 896:Drivers/STM32F4xx_HAL_Driver/Src/stm32f4xx_hal_i2s_ex.c ****       CLEAR_BIT(I2SxEXT(hi2s->Instance)->CR2, SPI_CR2_TXDMAEN);
 1861              		.loc 1 896 7 is_stmt 1 view .LVU626
 1862 0052 5368     		ldr	r3, [r2, #4]
 1863 0054 23F00103 		bic	r3, r3, #1
 1864 0058 5360     		str	r3, [r2, #4]
 897:Drivers/STM32F4xx_HAL_Driver/Src/stm32f4xx_hal_i2s_ex.c ****     }
 1865              		.loc 1 897 7 view .LVU627
 1866 005a 0268     		ldr	r2, [r0]
 1867 005c 054B     		ldr	r3, .L175
 1868 005e 9A42     		cmp	r2, r3
 1869 0060 06D0     		beq	.L174
 897:Drivers/STM32F4xx_HAL_Driver/Src/stm32f4xx_hal_i2s_ex.c ****     }
 1870              		.loc 1 897 7 is_stmt 0 discriminator 2 view .LVU628
 1871 0062 4FF04022 		mov	r2, #1073758208
 1872              	.L169:
 897:Drivers/STM32F4xx_HAL_Driver/Src/stm32f4xx_hal_i2s_ex.c ****     }
 1873              		.loc 1 897 7 discriminator 4 view .LVU629
 1874 0066 5368     		ldr	r3, [r2, #4]
 897:Drivers/STM32F4xx_HAL_Driver/Src/stm32f4xx_hal_i2s_ex.c ****     }
 1875              		.loc 1 897 7 discriminator 8 view .LVU630
 1876 0068 23F00203 		bic	r3, r3, #2
 1877 006c 5360     		str	r3, [r2, #4]
 1878 006e E5E7     		b	.L168
 1879              	.L174:
 897:Drivers/STM32F4xx_HAL_Driver/Src/stm32f4xx_hal_i2s_ex.c ****     }
 1880              		.loc 1 897 7 discriminator 1 view .LVU631
 1881 0070 014A     		ldr	r2, .L175+4
ARM GAS  /tmp/ccQYaWvF.s 			page 64


 1882 0072 F8E7     		b	.L169
 1883              	.L176:
 1884              		.align	2
 1885              	.L175:
 1886 0074 00380040 		.word	1073756160
 1887 0078 00340040 		.word	1073755136
 1888              		.cfi_endproc
 1889              	.LFE141:
 1891              		.section	.text.I2SEx_TxISR_I2S,"ax",%progbits
 1892              		.align	1
 1893              		.syntax unified
 1894              		.thumb
 1895              		.thumb_func
 1897              	I2SEx_TxISR_I2S:
 1898              	.LVL98:
 1899              	.LFB143:
 948:Drivers/STM32F4xx_HAL_Driver/Src/stm32f4xx_hal_i2s_ex.c ****   /* Write Data on DR register */
 1900              		.loc 1 948 1 is_stmt 1 view -0
 1901              		.cfi_startproc
 1902              		@ args = 0, pretend = 0, frame = 0
 1903              		@ frame_needed = 0, uses_anonymous_args = 0
 948:Drivers/STM32F4xx_HAL_Driver/Src/stm32f4xx_hal_i2s_ex.c ****   /* Write Data on DR register */
 1904              		.loc 1 948 1 is_stmt 0 view .LVU633
 1905 0000 08B5     		push	{r3, lr}
 1906              		.cfi_def_cfa_offset 8
 1907              		.cfi_offset 3, -8
 1908              		.cfi_offset 14, -4
 950:Drivers/STM32F4xx_HAL_Driver/Src/stm32f4xx_hal_i2s_ex.c ****   hi2s->TxXferCount--;
 1909              		.loc 1 950 3 is_stmt 1 view .LVU634
 950:Drivers/STM32F4xx_HAL_Driver/Src/stm32f4xx_hal_i2s_ex.c ****   hi2s->TxXferCount--;
 1910              		.loc 1 950 30 is_stmt 0 view .LVU635
 1911 0002 436A     		ldr	r3, [r0, #36]
 950:Drivers/STM32F4xx_HAL_Driver/Src/stm32f4xx_hal_i2s_ex.c ****   hi2s->TxXferCount--;
 1912              		.loc 1 950 42 view .LVU636
 1913 0004 9A1C     		adds	r2, r3, #2
 1914 0006 4262     		str	r2, [r0, #36]
 950:Drivers/STM32F4xx_HAL_Driver/Src/stm32f4xx_hal_i2s_ex.c ****   hi2s->TxXferCount--;
 1915              		.loc 1 950 7 view .LVU637
 1916 0008 0268     		ldr	r2, [r0]
 950:Drivers/STM32F4xx_HAL_Driver/Src/stm32f4xx_hal_i2s_ex.c ****   hi2s->TxXferCount--;
 1917              		.loc 1 950 25 view .LVU638
 1918 000a 1B88     		ldrh	r3, [r3]
 950:Drivers/STM32F4xx_HAL_Driver/Src/stm32f4xx_hal_i2s_ex.c ****   hi2s->TxXferCount--;
 1919              		.loc 1 950 22 view .LVU639
 1920 000c D360     		str	r3, [r2, #12]
 951:Drivers/STM32F4xx_HAL_Driver/Src/stm32f4xx_hal_i2s_ex.c **** 
 1921              		.loc 1 951 3 is_stmt 1 view .LVU640
 951:Drivers/STM32F4xx_HAL_Driver/Src/stm32f4xx_hal_i2s_ex.c **** 
 1922              		.loc 1 951 7 is_stmt 0 view .LVU641
 1923 000e 438D     		ldrh	r3, [r0, #42]
 1924 0010 9BB2     		uxth	r3, r3
 951:Drivers/STM32F4xx_HAL_Driver/Src/stm32f4xx_hal_i2s_ex.c **** 
 1925              		.loc 1 951 20 view .LVU642
 1926 0012 013B     		subs	r3, r3, #1
 1927 0014 9BB2     		uxth	r3, r3
 1928 0016 4385     		strh	r3, [r0, #42]	@ movhi
 953:Drivers/STM32F4xx_HAL_Driver/Src/stm32f4xx_hal_i2s_ex.c ****   {
ARM GAS  /tmp/ccQYaWvF.s 			page 65


 1929              		.loc 1 953 3 is_stmt 1 view .LVU643
 953:Drivers/STM32F4xx_HAL_Driver/Src/stm32f4xx_hal_i2s_ex.c ****   {
 1930              		.loc 1 953 11 is_stmt 0 view .LVU644
 1931 0018 438D     		ldrh	r3, [r0, #42]
 1932 001a 9BB2     		uxth	r3, r3
 953:Drivers/STM32F4xx_HAL_Driver/Src/stm32f4xx_hal_i2s_ex.c ****   {
 1933              		.loc 1 953 6 view .LVU645
 1934 001c 3BB9     		cbnz	r3, .L177
 956:Drivers/STM32F4xx_HAL_Driver/Src/stm32f4xx_hal_i2s_ex.c **** 
 1935              		.loc 1 956 5 is_stmt 1 view .LVU646
 1936 001e 0268     		ldr	r2, [r0]
 1937 0020 5368     		ldr	r3, [r2, #4]
 1938 0022 23F0A003 		bic	r3, r3, #160
 1939 0026 5360     		str	r3, [r2, #4]
 958:Drivers/STM32F4xx_HAL_Driver/Src/stm32f4xx_hal_i2s_ex.c ****     {
 1940              		.loc 1 958 5 view .LVU647
 958:Drivers/STM32F4xx_HAL_Driver/Src/stm32f4xx_hal_i2s_ex.c ****     {
 1941              		.loc 1 958 13 is_stmt 0 view .LVU648
 1942 0028 438E     		ldrh	r3, [r0, #50]
 1943 002a 9BB2     		uxth	r3, r3
 958:Drivers/STM32F4xx_HAL_Driver/Src/stm32f4xx_hal_i2s_ex.c ****     {
 1944              		.loc 1 958 8 view .LVU649
 1945 002c 03B1     		cbz	r3, .L180
 1946              	.LVL99:
 1947              	.L177:
 969:Drivers/STM32F4xx_HAL_Driver/Src/stm32f4xx_hal_i2s_ex.c **** 
 1948              		.loc 1 969 1 view .LVU650
 1949 002e 08BD     		pop	{r3, pc}
 1950              	.LVL100:
 1951              	.L180:
 960:Drivers/STM32F4xx_HAL_Driver/Src/stm32f4xx_hal_i2s_ex.c ****       /* Call user TxRx complete callback */
 1952              		.loc 1 960 7 is_stmt 1 view .LVU651
 960:Drivers/STM32F4xx_HAL_Driver/Src/stm32f4xx_hal_i2s_ex.c ****       /* Call user TxRx complete callback */
 1953              		.loc 1 960 19 is_stmt 0 view .LVU652
 1954 0030 0123     		movs	r3, #1
 1955 0032 80F84130 		strb	r3, [r0, #65]
 965:Drivers/STM32F4xx_HAL_Driver/Src/stm32f4xx_hal_i2s_ex.c **** #endif /* USE_HAL_I2S_REGISTER_CALLBACKS */
 1956              		.loc 1 965 7 is_stmt 1 view .LVU653
 1957 0036 FFF7FEFF 		bl	HAL_I2SEx_TxRxCpltCallback
 1958              	.LVL101:
 969:Drivers/STM32F4xx_HAL_Driver/Src/stm32f4xx_hal_i2s_ex.c **** 
 1959              		.loc 1 969 1 is_stmt 0 view .LVU654
 1960 003a F8E7     		b	.L177
 1961              		.cfi_endproc
 1962              	.LFE143:
 1964              		.section	.text.I2SEx_RxISR_I2SExt,"ax",%progbits
 1965              		.align	1
 1966              		.syntax unified
 1967              		.thumb
 1968              		.thumb_func
 1970              	I2SEx_RxISR_I2SExt:
 1971              	.LVL102:
 1972              	.LFB146:
1035:Drivers/STM32F4xx_HAL_Driver/Src/stm32f4xx_hal_i2s_ex.c ****   /* Read Data from DR register */
 1973              		.loc 1 1035 1 is_stmt 1 view -0
 1974              		.cfi_startproc
 1975              		@ args = 0, pretend = 0, frame = 0
ARM GAS  /tmp/ccQYaWvF.s 			page 66


 1976              		@ frame_needed = 0, uses_anonymous_args = 0
1035:Drivers/STM32F4xx_HAL_Driver/Src/stm32f4xx_hal_i2s_ex.c ****   /* Read Data from DR register */
 1977              		.loc 1 1035 1 is_stmt 0 view .LVU656
 1978 0000 08B5     		push	{r3, lr}
 1979              		.cfi_def_cfa_offset 8
 1980              		.cfi_offset 3, -8
 1981              		.cfi_offset 14, -4
1037:Drivers/STM32F4xx_HAL_Driver/Src/stm32f4xx_hal_i2s_ex.c ****   hi2s->RxXferCount--;
 1982              		.loc 1 1037 3 is_stmt 1 view .LVU657
1037:Drivers/STM32F4xx_HAL_Driver/Src/stm32f4xx_hal_i2s_ex.c ****   hi2s->RxXferCount--;
 1983              		.loc 1 1037 27 is_stmt 0 view .LVU658
 1984 0002 0268     		ldr	r2, [r0]
 1985 0004 154B     		ldr	r3, .L191
 1986 0006 9A42     		cmp	r2, r3
 1987 0008 1CD0     		beq	.L188
1037:Drivers/STM32F4xx_HAL_Driver/Src/stm32f4xx_hal_i2s_ex.c ****   hi2s->RxXferCount--;
 1988              		.loc 1 1037 27 discriminator 2 view .LVU659
 1989 000a 4FF04023 		mov	r3, #1073758208
 1990              	.L182:
1037:Drivers/STM32F4xx_HAL_Driver/Src/stm32f4xx_hal_i2s_ex.c ****   hi2s->RxXferCount--;
 1991              		.loc 1 1037 50 discriminator 4 view .LVU660
 1992 000e DA68     		ldr	r2, [r3, #12]
1037:Drivers/STM32F4xx_HAL_Driver/Src/stm32f4xx_hal_i2s_ex.c ****   hi2s->RxXferCount--;
 1993              		.loc 1 1037 9 discriminator 4 view .LVU661
 1994 0010 C36A     		ldr	r3, [r0, #44]
1037:Drivers/STM32F4xx_HAL_Driver/Src/stm32f4xx_hal_i2s_ex.c ****   hi2s->RxXferCount--;
 1995              		.loc 1 1037 21 discriminator 4 view .LVU662
 1996 0012 991C     		adds	r1, r3, #2
 1997 0014 C162     		str	r1, [r0, #44]
1037:Drivers/STM32F4xx_HAL_Driver/Src/stm32f4xx_hal_i2s_ex.c ****   hi2s->RxXferCount--;
 1998              		.loc 1 1037 25 discriminator 4 view .LVU663
 1999 0016 1A80     		strh	r2, [r3]	@ movhi
1038:Drivers/STM32F4xx_HAL_Driver/Src/stm32f4xx_hal_i2s_ex.c **** 
 2000              		.loc 1 1038 3 is_stmt 1 view .LVU664
1038:Drivers/STM32F4xx_HAL_Driver/Src/stm32f4xx_hal_i2s_ex.c **** 
 2001              		.loc 1 1038 7 is_stmt 0 view .LVU665
 2002 0018 438E     		ldrh	r3, [r0, #50]
 2003 001a 9BB2     		uxth	r3, r3
1038:Drivers/STM32F4xx_HAL_Driver/Src/stm32f4xx_hal_i2s_ex.c **** 
 2004              		.loc 1 1038 20 view .LVU666
 2005 001c 013B     		subs	r3, r3, #1
 2006 001e 9BB2     		uxth	r3, r3
 2007 0020 4386     		strh	r3, [r0, #50]	@ movhi
1040:Drivers/STM32F4xx_HAL_Driver/Src/stm32f4xx_hal_i2s_ex.c ****   {
 2008              		.loc 1 1040 3 is_stmt 1 view .LVU667
1040:Drivers/STM32F4xx_HAL_Driver/Src/stm32f4xx_hal_i2s_ex.c ****   {
 2009              		.loc 1 1040 11 is_stmt 0 view .LVU668
 2010 0022 438E     		ldrh	r3, [r0, #50]
 2011 0024 9BB2     		uxth	r3, r3
1040:Drivers/STM32F4xx_HAL_Driver/Src/stm32f4xx_hal_i2s_ex.c ****   {
 2012              		.loc 1 1040 6 view .LVU669
 2013 0026 63B9     		cbnz	r3, .L181
1043:Drivers/STM32F4xx_HAL_Driver/Src/stm32f4xx_hal_i2s_ex.c **** 
 2014              		.loc 1 1043 5 is_stmt 1 view .LVU670
 2015 0028 0268     		ldr	r2, [r0]
 2016 002a 0C4B     		ldr	r3, .L191
 2017 002c 9A42     		cmp	r2, r3
ARM GAS  /tmp/ccQYaWvF.s 			page 67


 2018 002e 0CD0     		beq	.L189
1043:Drivers/STM32F4xx_HAL_Driver/Src/stm32f4xx_hal_i2s_ex.c **** 
 2019              		.loc 1 1043 5 is_stmt 0 discriminator 2 view .LVU671
 2020 0030 4FF04022 		mov	r2, #1073758208
 2021              	.L184:
1043:Drivers/STM32F4xx_HAL_Driver/Src/stm32f4xx_hal_i2s_ex.c **** 
 2022              		.loc 1 1043 5 discriminator 4 view .LVU672
 2023 0034 5368     		ldr	r3, [r2, #4]
1043:Drivers/STM32F4xx_HAL_Driver/Src/stm32f4xx_hal_i2s_ex.c **** 
 2024              		.loc 1 1043 5 discriminator 8 view .LVU673
 2025 0036 23F06003 		bic	r3, r3, #96
 2026 003a 5360     		str	r3, [r2, #4]
1045:Drivers/STM32F4xx_HAL_Driver/Src/stm32f4xx_hal_i2s_ex.c ****     {
 2027              		.loc 1 1045 5 is_stmt 1 view .LVU674
1045:Drivers/STM32F4xx_HAL_Driver/Src/stm32f4xx_hal_i2s_ex.c ****     {
 2028              		.loc 1 1045 13 is_stmt 0 view .LVU675
 2029 003c 438D     		ldrh	r3, [r0, #42]
 2030 003e 9BB2     		uxth	r3, r3
1045:Drivers/STM32F4xx_HAL_Driver/Src/stm32f4xx_hal_i2s_ex.c ****     {
 2031              		.loc 1 1045 8 view .LVU676
 2032 0040 2BB1     		cbz	r3, .L190
 2033              	.LVL103:
 2034              	.L181:
1056:Drivers/STM32F4xx_HAL_Driver/Src/stm32f4xx_hal_i2s_ex.c **** 
 2035              		.loc 1 1056 1 view .LVU677
 2036 0042 08BD     		pop	{r3, pc}
 2037              	.LVL104:
 2038              	.L188:
1037:Drivers/STM32F4xx_HAL_Driver/Src/stm32f4xx_hal_i2s_ex.c ****   hi2s->RxXferCount--;
 2039              		.loc 1 1037 27 discriminator 1 view .LVU678
 2040 0044 A3F58063 		sub	r3, r3, #1024
 2041 0048 E1E7     		b	.L182
 2042              	.L189:
1043:Drivers/STM32F4xx_HAL_Driver/Src/stm32f4xx_hal_i2s_ex.c **** 
 2043              		.loc 1 1043 5 discriminator 1 view .LVU679
 2044 004a 054A     		ldr	r2, .L191+4
 2045 004c F2E7     		b	.L184
 2046              	.L190:
1047:Drivers/STM32F4xx_HAL_Driver/Src/stm32f4xx_hal_i2s_ex.c ****       /* Call user TxRx complete callback */
 2047              		.loc 1 1047 7 is_stmt 1 view .LVU680
1047:Drivers/STM32F4xx_HAL_Driver/Src/stm32f4xx_hal_i2s_ex.c ****       /* Call user TxRx complete callback */
 2048              		.loc 1 1047 19 is_stmt 0 view .LVU681
 2049 004e 0123     		movs	r3, #1
 2050 0050 80F84130 		strb	r3, [r0, #65]
1052:Drivers/STM32F4xx_HAL_Driver/Src/stm32f4xx_hal_i2s_ex.c **** #endif /* USE_HAL_I2S_REGISTER_CALLBACKS */
 2051              		.loc 1 1052 7 is_stmt 1 view .LVU682
 2052 0054 FFF7FEFF 		bl	HAL_I2SEx_TxRxCpltCallback
 2053              	.LVL105:
1056:Drivers/STM32F4xx_HAL_Driver/Src/stm32f4xx_hal_i2s_ex.c **** 
 2054              		.loc 1 1056 1 is_stmt 0 view .LVU683
 2055 0058 F3E7     		b	.L181
 2056              	.L192:
 2057 005a 00BF     		.align	2
 2058              	.L191:
 2059 005c 00380040 		.word	1073756160
 2060 0060 00340040 		.word	1073755136
 2061              		.cfi_endproc
ARM GAS  /tmp/ccQYaWvF.s 			page 68


 2062              	.LFE146:
 2064              		.section	.text.I2SEx_TxISR_I2SExt,"ax",%progbits
 2065              		.align	1
 2066              		.syntax unified
 2067              		.thumb
 2068              		.thumb_func
 2070              	I2SEx_TxISR_I2SExt:
 2071              	.LVL106:
 2072              	.LFB144:
 977:Drivers/STM32F4xx_HAL_Driver/Src/stm32f4xx_hal_i2s_ex.c ****   /* Write Data on DR register */
 2073              		.loc 1 977 1 is_stmt 1 view -0
 2074              		.cfi_startproc
 2075              		@ args = 0, pretend = 0, frame = 0
 2076              		@ frame_needed = 0, uses_anonymous_args = 0
 977:Drivers/STM32F4xx_HAL_Driver/Src/stm32f4xx_hal_i2s_ex.c ****   /* Write Data on DR register */
 2077              		.loc 1 977 1 is_stmt 0 view .LVU685
 2078 0000 08B5     		push	{r3, lr}
 2079              		.cfi_def_cfa_offset 8
 2080              		.cfi_offset 3, -8
 2081              		.cfi_offset 14, -4
 979:Drivers/STM32F4xx_HAL_Driver/Src/stm32f4xx_hal_i2s_ex.c ****   hi2s->TxXferCount--;
 2082              		.loc 1 979 3 is_stmt 1 view .LVU686
 979:Drivers/STM32F4xx_HAL_Driver/Src/stm32f4xx_hal_i2s_ex.c ****   hi2s->TxXferCount--;
 2083              		.loc 1 979 39 is_stmt 0 view .LVU687
 2084 0002 436A     		ldr	r3, [r0, #36]
 979:Drivers/STM32F4xx_HAL_Driver/Src/stm32f4xx_hal_i2s_ex.c ****   hi2s->TxXferCount--;
 2085              		.loc 1 979 51 view .LVU688
 2086 0004 9A1C     		adds	r2, r3, #2
 2087 0006 4262     		str	r2, [r0, #36]
 979:Drivers/STM32F4xx_HAL_Driver/Src/stm32f4xx_hal_i2s_ex.c ****   hi2s->TxXferCount--;
 2088              		.loc 1 979 34 view .LVU689
 2089 0008 1A88     		ldrh	r2, [r3]
 979:Drivers/STM32F4xx_HAL_Driver/Src/stm32f4xx_hal_i2s_ex.c ****   hi2s->TxXferCount--;
 2090              		.loc 1 979 3 view .LVU690
 2091 000a 0168     		ldr	r1, [r0]
 2092 000c 134B     		ldr	r3, .L203
 2093 000e 9942     		cmp	r1, r3
 2094 0010 18D0     		beq	.L200
 979:Drivers/STM32F4xx_HAL_Driver/Src/stm32f4xx_hal_i2s_ex.c ****   hi2s->TxXferCount--;
 2095              		.loc 1 979 3 discriminator 2 view .LVU691
 2096 0012 4FF04023 		mov	r3, #1073758208
 2097              	.L194:
 979:Drivers/STM32F4xx_HAL_Driver/Src/stm32f4xx_hal_i2s_ex.c ****   hi2s->TxXferCount--;
 2098              		.loc 1 979 31 discriminator 4 view .LVU692
 2099 0016 DA60     		str	r2, [r3, #12]
 980:Drivers/STM32F4xx_HAL_Driver/Src/stm32f4xx_hal_i2s_ex.c **** 
 2100              		.loc 1 980 3 is_stmt 1 view .LVU693
 980:Drivers/STM32F4xx_HAL_Driver/Src/stm32f4xx_hal_i2s_ex.c **** 
 2101              		.loc 1 980 7 is_stmt 0 view .LVU694
 2102 0018 438D     		ldrh	r3, [r0, #42]
 2103 001a 9BB2     		uxth	r3, r3
 980:Drivers/STM32F4xx_HAL_Driver/Src/stm32f4xx_hal_i2s_ex.c **** 
 2104              		.loc 1 980 20 view .LVU695
 2105 001c 013B     		subs	r3, r3, #1
 2106 001e 9BB2     		uxth	r3, r3
 2107 0020 4385     		strh	r3, [r0, #42]	@ movhi
 982:Drivers/STM32F4xx_HAL_Driver/Src/stm32f4xx_hal_i2s_ex.c ****   {
ARM GAS  /tmp/ccQYaWvF.s 			page 69


 2108              		.loc 1 982 3 is_stmt 1 view .LVU696
 982:Drivers/STM32F4xx_HAL_Driver/Src/stm32f4xx_hal_i2s_ex.c ****   {
 2109              		.loc 1 982 11 is_stmt 0 view .LVU697
 2110 0022 438D     		ldrh	r3, [r0, #42]
 2111 0024 9BB2     		uxth	r3, r3
 982:Drivers/STM32F4xx_HAL_Driver/Src/stm32f4xx_hal_i2s_ex.c ****   {
 2112              		.loc 1 982 6 view .LVU698
 2113 0026 63B9     		cbnz	r3, .L193
 985:Drivers/STM32F4xx_HAL_Driver/Src/stm32f4xx_hal_i2s_ex.c **** 
 2114              		.loc 1 985 5 is_stmt 1 view .LVU699
 2115 0028 0268     		ldr	r2, [r0]
 2116 002a 0C4B     		ldr	r3, .L203
 2117 002c 9A42     		cmp	r2, r3
 2118 002e 0CD0     		beq	.L201
 985:Drivers/STM32F4xx_HAL_Driver/Src/stm32f4xx_hal_i2s_ex.c **** 
 2119              		.loc 1 985 5 is_stmt 0 discriminator 2 view .LVU700
 2120 0030 4FF04022 		mov	r2, #1073758208
 2121              	.L196:
 985:Drivers/STM32F4xx_HAL_Driver/Src/stm32f4xx_hal_i2s_ex.c **** 
 2122              		.loc 1 985 5 discriminator 4 view .LVU701
 2123 0034 5368     		ldr	r3, [r2, #4]
 985:Drivers/STM32F4xx_HAL_Driver/Src/stm32f4xx_hal_i2s_ex.c **** 
 2124              		.loc 1 985 5 discriminator 8 view .LVU702
 2125 0036 23F0A003 		bic	r3, r3, #160
 2126 003a 5360     		str	r3, [r2, #4]
 987:Drivers/STM32F4xx_HAL_Driver/Src/stm32f4xx_hal_i2s_ex.c ****     {
 2127              		.loc 1 987 5 is_stmt 1 view .LVU703
 987:Drivers/STM32F4xx_HAL_Driver/Src/stm32f4xx_hal_i2s_ex.c ****     {
 2128              		.loc 1 987 13 is_stmt 0 view .LVU704
 2129 003c 438E     		ldrh	r3, [r0, #50]
 2130 003e 9BB2     		uxth	r3, r3
 987:Drivers/STM32F4xx_HAL_Driver/Src/stm32f4xx_hal_i2s_ex.c ****     {
 2131              		.loc 1 987 8 view .LVU705
 2132 0040 2BB1     		cbz	r3, .L202
 2133              	.LVL107:
 2134              	.L193:
 998:Drivers/STM32F4xx_HAL_Driver/Src/stm32f4xx_hal_i2s_ex.c **** 
 2135              		.loc 1 998 1 view .LVU706
 2136 0042 08BD     		pop	{r3, pc}
 2137              	.LVL108:
 2138              	.L200:
 979:Drivers/STM32F4xx_HAL_Driver/Src/stm32f4xx_hal_i2s_ex.c ****   hi2s->TxXferCount--;
 2139              		.loc 1 979 3 discriminator 1 view .LVU707
 2140 0044 A3F58063 		sub	r3, r3, #1024
 2141 0048 E5E7     		b	.L194
 2142              	.L201:
 985:Drivers/STM32F4xx_HAL_Driver/Src/stm32f4xx_hal_i2s_ex.c **** 
 2143              		.loc 1 985 5 discriminator 1 view .LVU708
 2144 004a 054A     		ldr	r2, .L203+4
 2145 004c F2E7     		b	.L196
 2146              	.L202:
 989:Drivers/STM32F4xx_HAL_Driver/Src/stm32f4xx_hal_i2s_ex.c ****       /* Call user TxRx complete callback */
 2147              		.loc 1 989 7 is_stmt 1 view .LVU709
 989:Drivers/STM32F4xx_HAL_Driver/Src/stm32f4xx_hal_i2s_ex.c ****       /* Call user TxRx complete callback */
 2148              		.loc 1 989 19 is_stmt 0 view .LVU710
 2149 004e 0123     		movs	r3, #1
 2150 0050 80F84130 		strb	r3, [r0, #65]
ARM GAS  /tmp/ccQYaWvF.s 			page 70


 994:Drivers/STM32F4xx_HAL_Driver/Src/stm32f4xx_hal_i2s_ex.c **** #endif /* USE_HAL_I2S_REGISTER_CALLBACKS */
 2151              		.loc 1 994 7 is_stmt 1 view .LVU711
 2152 0054 FFF7FEFF 		bl	HAL_I2SEx_TxRxCpltCallback
 2153              	.LVL109:
 998:Drivers/STM32F4xx_HAL_Driver/Src/stm32f4xx_hal_i2s_ex.c **** 
 2154              		.loc 1 998 1 is_stmt 0 view .LVU712
 2155 0058 F3E7     		b	.L193
 2156              	.L204:
 2157 005a 00BF     		.align	2
 2158              	.L203:
 2159 005c 00380040 		.word	1073756160
 2160 0060 00340040 		.word	1073755136
 2161              		.cfi_endproc
 2162              	.LFE144:
 2164              		.section	.text.I2SEx_RxISR_I2S,"ax",%progbits
 2165              		.align	1
 2166              		.syntax unified
 2167              		.thumb
 2168              		.thumb_func
 2170              	I2SEx_RxISR_I2S:
 2171              	.LVL110:
 2172              	.LFB145:
1006:Drivers/STM32F4xx_HAL_Driver/Src/stm32f4xx_hal_i2s_ex.c ****   /* Read Data from DR register */
 2173              		.loc 1 1006 1 is_stmt 1 view -0
 2174              		.cfi_startproc
 2175              		@ args = 0, pretend = 0, frame = 0
 2176              		@ frame_needed = 0, uses_anonymous_args = 0
1006:Drivers/STM32F4xx_HAL_Driver/Src/stm32f4xx_hal_i2s_ex.c ****   /* Read Data from DR register */
 2177              		.loc 1 1006 1 is_stmt 0 view .LVU714
 2178 0000 08B5     		push	{r3, lr}
 2179              		.cfi_def_cfa_offset 8
 2180              		.cfi_offset 3, -8
 2181              		.cfi_offset 14, -4
1008:Drivers/STM32F4xx_HAL_Driver/Src/stm32f4xx_hal_i2s_ex.c ****   hi2s->RxXferCount--;
 2182              		.loc 1 1008 3 is_stmt 1 view .LVU715
1008:Drivers/STM32F4xx_HAL_Driver/Src/stm32f4xx_hal_i2s_ex.c ****   hi2s->RxXferCount--;
 2183              		.loc 1 1008 31 is_stmt 0 view .LVU716
 2184 0002 0368     		ldr	r3, [r0]
1008:Drivers/STM32F4xx_HAL_Driver/Src/stm32f4xx_hal_i2s_ex.c ****   hi2s->RxXferCount--;
 2185              		.loc 1 1008 41 view .LVU717
 2186 0004 DA68     		ldr	r2, [r3, #12]
1008:Drivers/STM32F4xx_HAL_Driver/Src/stm32f4xx_hal_i2s_ex.c ****   hi2s->RxXferCount--;
 2187              		.loc 1 1008 9 view .LVU718
 2188 0006 C36A     		ldr	r3, [r0, #44]
1008:Drivers/STM32F4xx_HAL_Driver/Src/stm32f4xx_hal_i2s_ex.c ****   hi2s->RxXferCount--;
 2189              		.loc 1 1008 21 view .LVU719
 2190 0008 991C     		adds	r1, r3, #2
 2191 000a C162     		str	r1, [r0, #44]
1008:Drivers/STM32F4xx_HAL_Driver/Src/stm32f4xx_hal_i2s_ex.c ****   hi2s->RxXferCount--;
 2192              		.loc 1 1008 25 view .LVU720
 2193 000c 1A80     		strh	r2, [r3]	@ movhi
1009:Drivers/STM32F4xx_HAL_Driver/Src/stm32f4xx_hal_i2s_ex.c **** 
 2194              		.loc 1 1009 3 is_stmt 1 view .LVU721
1009:Drivers/STM32F4xx_HAL_Driver/Src/stm32f4xx_hal_i2s_ex.c **** 
 2195              		.loc 1 1009 7 is_stmt 0 view .LVU722
 2196 000e 438E     		ldrh	r3, [r0, #50]
 2197 0010 9BB2     		uxth	r3, r3
ARM GAS  /tmp/ccQYaWvF.s 			page 71


1009:Drivers/STM32F4xx_HAL_Driver/Src/stm32f4xx_hal_i2s_ex.c **** 
 2198              		.loc 1 1009 20 view .LVU723
 2199 0012 013B     		subs	r3, r3, #1
 2200 0014 9BB2     		uxth	r3, r3
 2201 0016 4386     		strh	r3, [r0, #50]	@ movhi
1011:Drivers/STM32F4xx_HAL_Driver/Src/stm32f4xx_hal_i2s_ex.c ****   {
 2202              		.loc 1 1011 3 is_stmt 1 view .LVU724
1011:Drivers/STM32F4xx_HAL_Driver/Src/stm32f4xx_hal_i2s_ex.c ****   {
 2203              		.loc 1 1011 11 is_stmt 0 view .LVU725
 2204 0018 438E     		ldrh	r3, [r0, #50]
 2205 001a 9BB2     		uxth	r3, r3
1011:Drivers/STM32F4xx_HAL_Driver/Src/stm32f4xx_hal_i2s_ex.c ****   {
 2206              		.loc 1 1011 6 view .LVU726
 2207 001c 3BB9     		cbnz	r3, .L205
1014:Drivers/STM32F4xx_HAL_Driver/Src/stm32f4xx_hal_i2s_ex.c **** 
 2208              		.loc 1 1014 5 is_stmt 1 view .LVU727
 2209 001e 0268     		ldr	r2, [r0]
 2210 0020 5368     		ldr	r3, [r2, #4]
 2211 0022 23F06003 		bic	r3, r3, #96
 2212 0026 5360     		str	r3, [r2, #4]
1016:Drivers/STM32F4xx_HAL_Driver/Src/stm32f4xx_hal_i2s_ex.c ****     {
 2213              		.loc 1 1016 5 view .LVU728
1016:Drivers/STM32F4xx_HAL_Driver/Src/stm32f4xx_hal_i2s_ex.c ****     {
 2214              		.loc 1 1016 13 is_stmt 0 view .LVU729
 2215 0028 438D     		ldrh	r3, [r0, #42]
 2216 002a 9BB2     		uxth	r3, r3
1016:Drivers/STM32F4xx_HAL_Driver/Src/stm32f4xx_hal_i2s_ex.c ****     {
 2217              		.loc 1 1016 8 view .LVU730
 2218 002c 03B1     		cbz	r3, .L208
 2219              	.LVL111:
 2220              	.L205:
1027:Drivers/STM32F4xx_HAL_Driver/Src/stm32f4xx_hal_i2s_ex.c **** 
 2221              		.loc 1 1027 1 view .LVU731
 2222 002e 08BD     		pop	{r3, pc}
 2223              	.LVL112:
 2224              	.L208:
1018:Drivers/STM32F4xx_HAL_Driver/Src/stm32f4xx_hal_i2s_ex.c ****       /* Call user TxRx complete callback */
 2225              		.loc 1 1018 7 is_stmt 1 view .LVU732
1018:Drivers/STM32F4xx_HAL_Driver/Src/stm32f4xx_hal_i2s_ex.c ****       /* Call user TxRx complete callback */
 2226              		.loc 1 1018 19 is_stmt 0 view .LVU733
 2227 0030 0123     		movs	r3, #1
 2228 0032 80F84130 		strb	r3, [r0, #65]
1023:Drivers/STM32F4xx_HAL_Driver/Src/stm32f4xx_hal_i2s_ex.c **** #endif /* USE_HAL_I2S_REGISTER_CALLBACKS */
 2229              		.loc 1 1023 7 is_stmt 1 view .LVU734
 2230 0036 FFF7FEFF 		bl	HAL_I2SEx_TxRxCpltCallback
 2231              	.LVL113:
1027:Drivers/STM32F4xx_HAL_Driver/Src/stm32f4xx_hal_i2s_ex.c **** 
 2232              		.loc 1 1027 1 is_stmt 0 view .LVU735
 2233 003a F8E7     		b	.L205
 2234              		.cfi_endproc
 2235              	.LFE145:
 2237              		.section	.text.HAL_I2SEx_FullDuplex_IRQHandler,"ax",%progbits
 2238              		.align	1
 2239              		.global	HAL_I2SEx_FullDuplex_IRQHandler
 2240              		.syntax unified
 2241              		.thumb
 2242              		.thumb_func
ARM GAS  /tmp/ccQYaWvF.s 			page 72


 2244              	HAL_I2SEx_FullDuplex_IRQHandler:
 2245              	.LVL114:
 2246              	.LFB137:
 674:Drivers/STM32F4xx_HAL_Driver/Src/stm32f4xx_hal_i2s_ex.c ****   __IO uint32_t i2ssr     = hi2s->Instance->SR;
 2247              		.loc 1 674 1 is_stmt 1 view -0
 2248              		.cfi_startproc
 2249              		@ args = 0, pretend = 0, frame = 24
 2250              		@ frame_needed = 0, uses_anonymous_args = 0
 674:Drivers/STM32F4xx_HAL_Driver/Src/stm32f4xx_hal_i2s_ex.c ****   __IO uint32_t i2ssr     = hi2s->Instance->SR;
 2251              		.loc 1 674 1 is_stmt 0 view .LVU737
 2252 0000 10B5     		push	{r4, lr}
 2253              		.cfi_def_cfa_offset 8
 2254              		.cfi_offset 4, -8
 2255              		.cfi_offset 14, -4
 2256 0002 86B0     		sub	sp, sp, #24
 2257              		.cfi_def_cfa_offset 32
 2258 0004 0446     		mov	r4, r0
 675:Drivers/STM32F4xx_HAL_Driver/Src/stm32f4xx_hal_i2s_ex.c ****   __IO uint32_t i2sextsr  = I2SxEXT(hi2s->Instance)->SR;
 2259              		.loc 1 675 3 is_stmt 1 view .LVU738
 675:Drivers/STM32F4xx_HAL_Driver/Src/stm32f4xx_hal_i2s_ex.c ****   __IO uint32_t i2sextsr  = I2SxEXT(hi2s->Instance)->SR;
 2260              		.loc 1 675 33 is_stmt 0 view .LVU739
 2261 0006 0368     		ldr	r3, [r0]
 675:Drivers/STM32F4xx_HAL_Driver/Src/stm32f4xx_hal_i2s_ex.c ****   __IO uint32_t i2sextsr  = I2SxEXT(hi2s->Instance)->SR;
 2262              		.loc 1 675 43 view .LVU740
 2263 0008 9A68     		ldr	r2, [r3, #8]
 675:Drivers/STM32F4xx_HAL_Driver/Src/stm32f4xx_hal_i2s_ex.c ****   __IO uint32_t i2sextsr  = I2SxEXT(hi2s->Instance)->SR;
 2264              		.loc 1 675 17 view .LVU741
 2265 000a 0592     		str	r2, [sp, #20]
 676:Drivers/STM32F4xx_HAL_Driver/Src/stm32f4xx_hal_i2s_ex.c ****   __IO uint32_t i2scr2    = hi2s->Instance->CR2;
 2266              		.loc 1 676 3 is_stmt 1 view .LVU742
 676:Drivers/STM32F4xx_HAL_Driver/Src/stm32f4xx_hal_i2s_ex.c ****   __IO uint32_t i2scr2    = hi2s->Instance->CR2;
 2267              		.loc 1 676 29 is_stmt 0 view .LVU743
 2268 000c 704A     		ldr	r2, .L239
 2269 000e 9342     		cmp	r3, r2
 2270 0010 6FD0     		beq	.L230
 676:Drivers/STM32F4xx_HAL_Driver/Src/stm32f4xx_hal_i2s_ex.c ****   __IO uint32_t i2scr2    = hi2s->Instance->CR2;
 2271              		.loc 1 676 29 discriminator 2 view .LVU744
 2272 0012 4FF04022 		mov	r2, #1073758208
 2273              	.L210:
 676:Drivers/STM32F4xx_HAL_Driver/Src/stm32f4xx_hal_i2s_ex.c ****   __IO uint32_t i2scr2    = hi2s->Instance->CR2;
 2274              		.loc 1 676 52 discriminator 4 view .LVU745
 2275 0016 9168     		ldr	r1, [r2, #8]
 676:Drivers/STM32F4xx_HAL_Driver/Src/stm32f4xx_hal_i2s_ex.c ****   __IO uint32_t i2scr2    = hi2s->Instance->CR2;
 2276              		.loc 1 676 17 discriminator 4 view .LVU746
 2277 0018 0491     		str	r1, [sp, #16]
 677:Drivers/STM32F4xx_HAL_Driver/Src/stm32f4xx_hal_i2s_ex.c ****   __IO uint32_t i2sextcr2 = I2SxEXT(hi2s->Instance)->CR2;
 2278              		.loc 1 677 3 is_stmt 1 view .LVU747
 677:Drivers/STM32F4xx_HAL_Driver/Src/stm32f4xx_hal_i2s_ex.c ****   __IO uint32_t i2sextcr2 = I2SxEXT(hi2s->Instance)->CR2;
 2279              		.loc 1 677 43 is_stmt 0 view .LVU748
 2280 001a 5B68     		ldr	r3, [r3, #4]
 677:Drivers/STM32F4xx_HAL_Driver/Src/stm32f4xx_hal_i2s_ex.c ****   __IO uint32_t i2sextcr2 = I2SxEXT(hi2s->Instance)->CR2;
 2281              		.loc 1 677 17 view .LVU749
 2282 001c 0393     		str	r3, [sp, #12]
 678:Drivers/STM32F4xx_HAL_Driver/Src/stm32f4xx_hal_i2s_ex.c **** 
 2283              		.loc 1 678 3 is_stmt 1 view .LVU750
 678:Drivers/STM32F4xx_HAL_Driver/Src/stm32f4xx_hal_i2s_ex.c **** 
 2284              		.loc 1 678 52 is_stmt 0 discriminator 4 view .LVU751
ARM GAS  /tmp/ccQYaWvF.s 			page 73


 2285 001e 5368     		ldr	r3, [r2, #4]
 678:Drivers/STM32F4xx_HAL_Driver/Src/stm32f4xx_hal_i2s_ex.c **** 
 2286              		.loc 1 678 17 discriminator 4 view .LVU752
 2287 0020 0293     		str	r3, [sp, #8]
 681:Drivers/STM32F4xx_HAL_Driver/Src/stm32f4xx_hal_i2s_ex.c ****   {
 2288              		.loc 1 681 3 is_stmt 1 view .LVU753
 681:Drivers/STM32F4xx_HAL_Driver/Src/stm32f4xx_hal_i2s_ex.c ****   {
 2289              		.loc 1 681 18 is_stmt 0 view .LVU754
 2290 0022 6368     		ldr	r3, [r4, #4]
 681:Drivers/STM32F4xx_HAL_Driver/Src/stm32f4xx_hal_i2s_ex.c ****   {
 2291              		.loc 1 681 6 view .LVU755
 2292 0024 B3F5007F 		cmp	r3, #512
 2293 0028 01D0     		beq	.L211
 681:Drivers/STM32F4xx_HAL_Driver/Src/stm32f4xx_hal_i2s_ex.c ****   {
 2294              		.loc 1 681 47 discriminator 1 view .LVU756
 2295 002a 002B     		cmp	r3, #0
 2296 002c 70D1     		bne	.L212
 2297              	.L211:
 684:Drivers/STM32F4xx_HAL_Driver/Src/stm32f4xx_hal_i2s_ex.c ****     {
 2298              		.loc 1 684 5 is_stmt 1 view .LVU757
 684:Drivers/STM32F4xx_HAL_Driver/Src/stm32f4xx_hal_i2s_ex.c ****     {
 2299              		.loc 1 684 17 is_stmt 0 view .LVU758
 2300 002e 059B     		ldr	r3, [sp, #20]
 684:Drivers/STM32F4xx_HAL_Driver/Src/stm32f4xx_hal_i2s_ex.c ****     {
 2301              		.loc 1 684 8 view .LVU759
 2302 0030 13F0020F 		tst	r3, #2
 2303 0034 03D0     		beq	.L213
 684:Drivers/STM32F4xx_HAL_Driver/Src/stm32f4xx_hal_i2s_ex.c ****     {
 2304              		.loc 1 684 62 discriminator 1 view .LVU760
 2305 0036 039B     		ldr	r3, [sp, #12]
 684:Drivers/STM32F4xx_HAL_Driver/Src/stm32f4xx_hal_i2s_ex.c ****     {
 2306              		.loc 1 684 50 discriminator 1 view .LVU761
 2307 0038 13F0800F 		tst	r3, #128
 2308 003c 5CD1     		bne	.L231
 2309              	.LVL115:
 2310              	.L213:
 692:Drivers/STM32F4xx_HAL_Driver/Src/stm32f4xx_hal_i2s_ex.c ****     {
 2311              		.loc 1 692 5 is_stmt 1 view .LVU762
 692:Drivers/STM32F4xx_HAL_Driver/Src/stm32f4xx_hal_i2s_ex.c ****     {
 2312              		.loc 1 692 20 is_stmt 0 view .LVU763
 2313 003e 049B     		ldr	r3, [sp, #16]
 692:Drivers/STM32F4xx_HAL_Driver/Src/stm32f4xx_hal_i2s_ex.c ****     {
 2314              		.loc 1 692 8 view .LVU764
 2315 0040 13F0010F 		tst	r3, #1
 2316 0044 03D0     		beq	.L214
 692:Drivers/STM32F4xx_HAL_Driver/Src/stm32f4xx_hal_i2s_ex.c ****     {
 2317              		.loc 1 692 70 discriminator 1 view .LVU765
 2318 0046 029B     		ldr	r3, [sp, #8]
 692:Drivers/STM32F4xx_HAL_Driver/Src/stm32f4xx_hal_i2s_ex.c ****     {
 2319              		.loc 1 692 55 discriminator 1 view .LVU766
 2320 0048 13F0400F 		tst	r3, #64
 2321 004c 58D1     		bne	.L232
 2322              	.L214:
 700:Drivers/STM32F4xx_HAL_Driver/Src/stm32f4xx_hal_i2s_ex.c ****     {
 2323              		.loc 1 700 5 is_stmt 1 view .LVU767
 700:Drivers/STM32F4xx_HAL_Driver/Src/stm32f4xx_hal_i2s_ex.c ****     {
 2324              		.loc 1 700 20 is_stmt 0 view .LVU768
ARM GAS  /tmp/ccQYaWvF.s 			page 74


 2325 004e 049B     		ldr	r3, [sp, #16]
 700:Drivers/STM32F4xx_HAL_Driver/Src/stm32f4xx_hal_i2s_ex.c ****     {
 2326              		.loc 1 700 8 view .LVU769
 2327 0050 13F0400F 		tst	r3, #64
 2328 0054 24D0     		beq	.L215
 700:Drivers/STM32F4xx_HAL_Driver/Src/stm32f4xx_hal_i2s_ex.c ****     {
 2329              		.loc 1 700 68 discriminator 1 view .LVU770
 2330 0056 029B     		ldr	r3, [sp, #8]
 700:Drivers/STM32F4xx_HAL_Driver/Src/stm32f4xx_hal_i2s_ex.c ****     {
 2331              		.loc 1 700 53 discriminator 1 view .LVU771
 2332 0058 13F0200F 		tst	r3, #32
 2333 005c 20D0     		beq	.L215
 703:Drivers/STM32F4xx_HAL_Driver/Src/stm32f4xx_hal_i2s_ex.c **** 
 2334              		.loc 1 703 7 is_stmt 1 view .LVU772
 2335 005e 2268     		ldr	r2, [r4]
 2336 0060 5B4B     		ldr	r3, .L239
 2337 0062 9A42     		cmp	r2, r3
 2338 0064 50D0     		beq	.L233
 703:Drivers/STM32F4xx_HAL_Driver/Src/stm32f4xx_hal_i2s_ex.c **** 
 2339              		.loc 1 703 7 is_stmt 0 discriminator 2 view .LVU773
 2340 0066 4FF04022 		mov	r2, #1073758208
 2341              	.L216:
 703:Drivers/STM32F4xx_HAL_Driver/Src/stm32f4xx_hal_i2s_ex.c **** 
 2342              		.loc 1 703 7 discriminator 4 view .LVU774
 2343 006a 5368     		ldr	r3, [r2, #4]
 703:Drivers/STM32F4xx_HAL_Driver/Src/stm32f4xx_hal_i2s_ex.c **** 
 2344              		.loc 1 703 7 discriminator 8 view .LVU775
 2345 006c 23F06003 		bic	r3, r3, #96
 2346 0070 5360     		str	r3, [r2, #4]
 706:Drivers/STM32F4xx_HAL_Driver/Src/stm32f4xx_hal_i2s_ex.c **** 
 2347              		.loc 1 706 7 is_stmt 1 view .LVU776
 2348 0072 2268     		ldr	r2, [r4]
 2349 0074 5368     		ldr	r3, [r2, #4]
 2350 0076 23F0A003 		bic	r3, r3, #160
 2351 007a 5360     		str	r3, [r2, #4]
 709:Drivers/STM32F4xx_HAL_Driver/Src/stm32f4xx_hal_i2s_ex.c **** 
 2352              		.loc 1 709 7 view .LVU777
 2353              	.LBB10:
 709:Drivers/STM32F4xx_HAL_Driver/Src/stm32f4xx_hal_i2s_ex.c **** 
 2354              		.loc 1 709 7 view .LVU778
 2355 007c 0023     		movs	r3, #0
 2356 007e 0093     		str	r3, [sp]
 709:Drivers/STM32F4xx_HAL_Driver/Src/stm32f4xx_hal_i2s_ex.c **** 
 2357              		.loc 1 709 7 view .LVU779
 2358 0080 2368     		ldr	r3, [r4]
 2359 0082 DA68     		ldr	r2, [r3, #12]
 2360 0084 0092     		str	r2, [sp]
 709:Drivers/STM32F4xx_HAL_Driver/Src/stm32f4xx_hal_i2s_ex.c **** 
 2361              		.loc 1 709 7 view .LVU780
 2362 0086 9B68     		ldr	r3, [r3, #8]
 2363 0088 0093     		str	r3, [sp]
 709:Drivers/STM32F4xx_HAL_Driver/Src/stm32f4xx_hal_i2s_ex.c **** 
 2364              		.loc 1 709 7 view .LVU781
 2365 008a 009B     		ldr	r3, [sp]
 2366              	.LBE10:
 709:Drivers/STM32F4xx_HAL_Driver/Src/stm32f4xx_hal_i2s_ex.c **** 
 2367              		.loc 1 709 7 view .LVU782
ARM GAS  /tmp/ccQYaWvF.s 			page 75


 712:Drivers/STM32F4xx_HAL_Driver/Src/stm32f4xx_hal_i2s_ex.c **** 
 2368              		.loc 1 712 7 view .LVU783
 712:Drivers/STM32F4xx_HAL_Driver/Src/stm32f4xx_hal_i2s_ex.c **** 
 2369              		.loc 1 712 19 is_stmt 0 view .LVU784
 2370 008c 0123     		movs	r3, #1
 2371 008e 84F84130 		strb	r3, [r4, #65]
 715:Drivers/STM32F4xx_HAL_Driver/Src/stm32f4xx_hal_i2s_ex.c ****       /* Call user error callback */
 2372              		.loc 1 715 7 is_stmt 1 view .LVU785
 2373 0092 636C     		ldr	r3, [r4, #68]
 2374 0094 43F00203 		orr	r3, r3, #2
 2375 0098 6364     		str	r3, [r4, #68]
 720:Drivers/STM32F4xx_HAL_Driver/Src/stm32f4xx_hal_i2s_ex.c **** #endif /* USE_HAL_I2S_REGISTER_CALLBACKS */
 2376              		.loc 1 720 7 view .LVU786
 2377 009a 2046     		mov	r0, r4
 2378 009c FFF7FEFF 		bl	HAL_I2S_ErrorCallback
 2379              	.LVL116:
 2380              	.L215:
 725:Drivers/STM32F4xx_HAL_Driver/Src/stm32f4xx_hal_i2s_ex.c ****     {
 2381              		.loc 1 725 5 view .LVU787
 725:Drivers/STM32F4xx_HAL_Driver/Src/stm32f4xx_hal_i2s_ex.c ****     {
 2382              		.loc 1 725 17 is_stmt 0 view .LVU788
 2383 00a0 059B     		ldr	r3, [sp, #20]
 725:Drivers/STM32F4xx_HAL_Driver/Src/stm32f4xx_hal_i2s_ex.c ****     {
 2384              		.loc 1 725 8 view .LVU789
 2385 00a2 13F0080F 		tst	r3, #8
 2386 00a6 22D0     		beq	.L209
 725:Drivers/STM32F4xx_HAL_Driver/Src/stm32f4xx_hal_i2s_ex.c ****     {
 2387              		.loc 1 725 62 discriminator 1 view .LVU790
 2388 00a8 039B     		ldr	r3, [sp, #12]
 725:Drivers/STM32F4xx_HAL_Driver/Src/stm32f4xx_hal_i2s_ex.c ****     {
 2389              		.loc 1 725 50 discriminator 1 view .LVU791
 2390 00aa 13F0200F 		tst	r3, #32
 2391 00ae 1ED0     		beq	.L209
 728:Drivers/STM32F4xx_HAL_Driver/Src/stm32f4xx_hal_i2s_ex.c **** 
 2392              		.loc 1 728 7 is_stmt 1 view .LVU792
 2393 00b0 2268     		ldr	r2, [r4]
 2394 00b2 5368     		ldr	r3, [r2, #4]
 2395 00b4 23F0A003 		bic	r3, r3, #160
 2396 00b8 5360     		str	r3, [r2, #4]
 731:Drivers/STM32F4xx_HAL_Driver/Src/stm32f4xx_hal_i2s_ex.c **** 
 2397              		.loc 1 731 7 view .LVU793
 2398 00ba 2268     		ldr	r2, [r4]
 2399 00bc 444B     		ldr	r3, .L239
 2400 00be 9A42     		cmp	r2, r3
 2401 00c0 24D0     		beq	.L234
 731:Drivers/STM32F4xx_HAL_Driver/Src/stm32f4xx_hal_i2s_ex.c **** 
 2402              		.loc 1 731 7 is_stmt 0 discriminator 2 view .LVU794
 2403 00c2 4FF04022 		mov	r2, #1073758208
 2404              	.L218:
 731:Drivers/STM32F4xx_HAL_Driver/Src/stm32f4xx_hal_i2s_ex.c **** 
 2405              		.loc 1 731 7 discriminator 4 view .LVU795
 2406 00c6 5368     		ldr	r3, [r2, #4]
 731:Drivers/STM32F4xx_HAL_Driver/Src/stm32f4xx_hal_i2s_ex.c **** 
 2407              		.loc 1 731 7 discriminator 8 view .LVU796
 2408 00c8 23F06003 		bic	r3, r3, #96
 2409 00cc 5360     		str	r3, [r2, #4]
 734:Drivers/STM32F4xx_HAL_Driver/Src/stm32f4xx_hal_i2s_ex.c **** 
ARM GAS  /tmp/ccQYaWvF.s 			page 76


 2410              		.loc 1 734 7 is_stmt 1 view .LVU797
 2411              	.LBB11:
 734:Drivers/STM32F4xx_HAL_Driver/Src/stm32f4xx_hal_i2s_ex.c **** 
 2412              		.loc 1 734 7 view .LVU798
 2413 00ce 0023     		movs	r3, #0
 2414 00d0 0193     		str	r3, [sp, #4]
 734:Drivers/STM32F4xx_HAL_Driver/Src/stm32f4xx_hal_i2s_ex.c **** 
 2415              		.loc 1 734 7 view .LVU799
 2416 00d2 2368     		ldr	r3, [r4]
 2417 00d4 9B68     		ldr	r3, [r3, #8]
 2418 00d6 0193     		str	r3, [sp, #4]
 734:Drivers/STM32F4xx_HAL_Driver/Src/stm32f4xx_hal_i2s_ex.c **** 
 2419              		.loc 1 734 7 view .LVU800
 2420 00d8 019B     		ldr	r3, [sp, #4]
 2421              	.LBE11:
 734:Drivers/STM32F4xx_HAL_Driver/Src/stm32f4xx_hal_i2s_ex.c **** 
 2422              		.loc 1 734 7 view .LVU801
 737:Drivers/STM32F4xx_HAL_Driver/Src/stm32f4xx_hal_i2s_ex.c **** 
 2423              		.loc 1 737 7 view .LVU802
 737:Drivers/STM32F4xx_HAL_Driver/Src/stm32f4xx_hal_i2s_ex.c **** 
 2424              		.loc 1 737 19 is_stmt 0 view .LVU803
 2425 00da 0123     		movs	r3, #1
 2426 00dc 84F84130 		strb	r3, [r4, #65]
 740:Drivers/STM32F4xx_HAL_Driver/Src/stm32f4xx_hal_i2s_ex.c ****       /* Call user error callback */
 2427              		.loc 1 740 7 is_stmt 1 view .LVU804
 2428 00e0 636C     		ldr	r3, [r4, #68]
 2429 00e2 43F00403 		orr	r3, r3, #4
 2430 00e6 6364     		str	r3, [r4, #68]
 745:Drivers/STM32F4xx_HAL_Driver/Src/stm32f4xx_hal_i2s_ex.c **** #endif /* USE_HAL_I2S_REGISTER_CALLBACKS */
 2431              		.loc 1 745 7 view .LVU805
 2432 00e8 2046     		mov	r0, r4
 2433 00ea FFF7FEFF 		bl	HAL_I2S_ErrorCallback
 2434              	.LVL117:
 2435              	.L209:
 812:Drivers/STM32F4xx_HAL_Driver/Src/stm32f4xx_hal_i2s_ex.c **** 
 2436              		.loc 1 812 1 is_stmt 0 view .LVU806
 2437 00ee 06B0     		add	sp, sp, #24
 2438              		.cfi_remember_state
 2439              		.cfi_def_cfa_offset 8
 2440              		@ sp needed
 2441 00f0 10BD     		pop	{r4, pc}
 2442              	.LVL118:
 2443              	.L230:
 2444              		.cfi_restore_state
 676:Drivers/STM32F4xx_HAL_Driver/Src/stm32f4xx_hal_i2s_ex.c ****   __IO uint32_t i2scr2    = hi2s->Instance->CR2;
 2445              		.loc 1 676 29 discriminator 1 view .LVU807
 2446 00f2 A2F58062 		sub	r2, r2, #1024
 2447 00f6 8EE7     		b	.L210
 2448              	.L231:
 688:Drivers/STM32F4xx_HAL_Driver/Src/stm32f4xx_hal_i2s_ex.c ****     }
 2449              		.loc 1 688 7 is_stmt 1 view .LVU808
 2450 00f8 2046     		mov	r0, r4
 2451              	.LVL119:
 688:Drivers/STM32F4xx_HAL_Driver/Src/stm32f4xx_hal_i2s_ex.c ****     }
 2452              		.loc 1 688 7 is_stmt 0 view .LVU809
 2453 00fa FFF7FEFF 		bl	I2SEx_TxISR_I2S
 2454              	.LVL120:
ARM GAS  /tmp/ccQYaWvF.s 			page 77


 2455 00fe 9EE7     		b	.L213
 2456              	.L232:
 696:Drivers/STM32F4xx_HAL_Driver/Src/stm32f4xx_hal_i2s_ex.c ****     }
 2457              		.loc 1 696 7 is_stmt 1 view .LVU810
 2458 0100 2046     		mov	r0, r4
 2459 0102 FFF7FEFF 		bl	I2SEx_RxISR_I2SExt
 2460              	.LVL121:
 2461 0106 A2E7     		b	.L214
 2462              	.L233:
 703:Drivers/STM32F4xx_HAL_Driver/Src/stm32f4xx_hal_i2s_ex.c **** 
 2463              		.loc 1 703 7 is_stmt 0 discriminator 1 view .LVU811
 2464 0108 324A     		ldr	r2, .L239+4
 2465 010a AEE7     		b	.L216
 2466              	.L234:
 731:Drivers/STM32F4xx_HAL_Driver/Src/stm32f4xx_hal_i2s_ex.c **** 
 2467              		.loc 1 731 7 discriminator 1 view .LVU812
 2468 010c 314A     		ldr	r2, .L239+4
 2469 010e DAE7     		b	.L218
 2470              	.LVL122:
 2471              	.L212:
 753:Drivers/STM32F4xx_HAL_Driver/Src/stm32f4xx_hal_i2s_ex.c ****     {
 2472              		.loc 1 753 5 is_stmt 1 view .LVU813
 753:Drivers/STM32F4xx_HAL_Driver/Src/stm32f4xx_hal_i2s_ex.c ****     {
 2473              		.loc 1 753 20 is_stmt 0 view .LVU814
 2474 0110 049B     		ldr	r3, [sp, #16]
 753:Drivers/STM32F4xx_HAL_Driver/Src/stm32f4xx_hal_i2s_ex.c ****     {
 2475              		.loc 1 753 8 view .LVU815
 2476 0112 13F0020F 		tst	r3, #2
 2477 0116 03D0     		beq	.L219
 753:Drivers/STM32F4xx_HAL_Driver/Src/stm32f4xx_hal_i2s_ex.c ****     {
 2478              		.loc 1 753 68 discriminator 1 view .LVU816
 2479 0118 029B     		ldr	r3, [sp, #8]
 753:Drivers/STM32F4xx_HAL_Driver/Src/stm32f4xx_hal_i2s_ex.c ****     {
 2480              		.loc 1 753 53 discriminator 1 view .LVU817
 2481 011a 13F0800F 		tst	r3, #128
 2482 011e 4AD1     		bne	.L235
 2483              	.LVL123:
 2484              	.L219:
 761:Drivers/STM32F4xx_HAL_Driver/Src/stm32f4xx_hal_i2s_ex.c ****     {
 2485              		.loc 1 761 5 is_stmt 1 view .LVU818
 761:Drivers/STM32F4xx_HAL_Driver/Src/stm32f4xx_hal_i2s_ex.c ****     {
 2486              		.loc 1 761 17 is_stmt 0 view .LVU819
 2487 0120 059B     		ldr	r3, [sp, #20]
 761:Drivers/STM32F4xx_HAL_Driver/Src/stm32f4xx_hal_i2s_ex.c ****     {
 2488              		.loc 1 761 8 view .LVU820
 2489 0122 13F0010F 		tst	r3, #1
 2490 0126 03D0     		beq	.L220
 761:Drivers/STM32F4xx_HAL_Driver/Src/stm32f4xx_hal_i2s_ex.c ****     {
 2491              		.loc 1 761 64 discriminator 1 view .LVU821
 2492 0128 039B     		ldr	r3, [sp, #12]
 761:Drivers/STM32F4xx_HAL_Driver/Src/stm32f4xx_hal_i2s_ex.c ****     {
 2493              		.loc 1 761 52 discriminator 1 view .LVU822
 2494 012a 13F0400F 		tst	r3, #64
 2495 012e 46D1     		bne	.L236
 2496              	.L220:
 769:Drivers/STM32F4xx_HAL_Driver/Src/stm32f4xx_hal_i2s_ex.c ****     {
 2497              		.loc 1 769 5 is_stmt 1 view .LVU823
ARM GAS  /tmp/ccQYaWvF.s 			page 78


 769:Drivers/STM32F4xx_HAL_Driver/Src/stm32f4xx_hal_i2s_ex.c ****     {
 2498              		.loc 1 769 17 is_stmt 0 view .LVU824
 2499 0130 059B     		ldr	r3, [sp, #20]
 769:Drivers/STM32F4xx_HAL_Driver/Src/stm32f4xx_hal_i2s_ex.c ****     {
 2500              		.loc 1 769 8 view .LVU825
 2501 0132 13F0400F 		tst	r3, #64
 2502 0136 1CD0     		beq	.L221
 769:Drivers/STM32F4xx_HAL_Driver/Src/stm32f4xx_hal_i2s_ex.c ****     {
 2503              		.loc 1 769 62 discriminator 1 view .LVU826
 2504 0138 039B     		ldr	r3, [sp, #12]
 769:Drivers/STM32F4xx_HAL_Driver/Src/stm32f4xx_hal_i2s_ex.c ****     {
 2505              		.loc 1 769 50 discriminator 1 view .LVU827
 2506 013a 13F0200F 		tst	r3, #32
 2507 013e 18D0     		beq	.L221
 772:Drivers/STM32F4xx_HAL_Driver/Src/stm32f4xx_hal_i2s_ex.c **** 
 2508              		.loc 1 772 7 is_stmt 1 view .LVU828
 2509 0140 2268     		ldr	r2, [r4]
 2510 0142 5368     		ldr	r3, [r2, #4]
 2511 0144 23F06003 		bic	r3, r3, #96
 2512 0148 5360     		str	r3, [r2, #4]
 775:Drivers/STM32F4xx_HAL_Driver/Src/stm32f4xx_hal_i2s_ex.c **** 
 2513              		.loc 1 775 7 view .LVU829
 2514 014a 2268     		ldr	r2, [r4]
 2515 014c 204B     		ldr	r3, .L239
 2516 014e 9A42     		cmp	r2, r3
 2517 0150 39D0     		beq	.L237
 775:Drivers/STM32F4xx_HAL_Driver/Src/stm32f4xx_hal_i2s_ex.c **** 
 2518              		.loc 1 775 7 is_stmt 0 discriminator 2 view .LVU830
 2519 0152 4FF04022 		mov	r2, #1073758208
 2520              	.L222:
 775:Drivers/STM32F4xx_HAL_Driver/Src/stm32f4xx_hal_i2s_ex.c **** 
 2521              		.loc 1 775 7 discriminator 4 view .LVU831
 2522 0156 5368     		ldr	r3, [r2, #4]
 775:Drivers/STM32F4xx_HAL_Driver/Src/stm32f4xx_hal_i2s_ex.c **** 
 2523              		.loc 1 775 7 discriminator 8 view .LVU832
 2524 0158 23F0A003 		bic	r3, r3, #160
 2525 015c 5360     		str	r3, [r2, #4]
 778:Drivers/STM32F4xx_HAL_Driver/Src/stm32f4xx_hal_i2s_ex.c **** 
 2526              		.loc 1 778 7 is_stmt 1 view .LVU833
 778:Drivers/STM32F4xx_HAL_Driver/Src/stm32f4xx_hal_i2s_ex.c **** 
 2527              		.loc 1 778 19 is_stmt 0 view .LVU834
 2528 015e 0123     		movs	r3, #1
 2529 0160 84F84130 		strb	r3, [r4, #65]
 781:Drivers/STM32F4xx_HAL_Driver/Src/stm32f4xx_hal_i2s_ex.c ****       /* Call user error callback */
 2530              		.loc 1 781 7 is_stmt 1 view .LVU835
 2531 0164 636C     		ldr	r3, [r4, #68]
 2532 0166 43F00203 		orr	r3, r3, #2
 2533 016a 6364     		str	r3, [r4, #68]
 786:Drivers/STM32F4xx_HAL_Driver/Src/stm32f4xx_hal_i2s_ex.c **** #endif /* USE_HAL_I2S_REGISTER_CALLBACKS */
 2534              		.loc 1 786 7 view .LVU836
 2535 016c 2046     		mov	r0, r4
 2536 016e FFF7FEFF 		bl	HAL_I2S_ErrorCallback
 2537              	.LVL124:
 2538              	.L221:
 791:Drivers/STM32F4xx_HAL_Driver/Src/stm32f4xx_hal_i2s_ex.c ****     {
 2539              		.loc 1 791 5 view .LVU837
 791:Drivers/STM32F4xx_HAL_Driver/Src/stm32f4xx_hal_i2s_ex.c ****     {
ARM GAS  /tmp/ccQYaWvF.s 			page 79


 2540              		.loc 1 791 20 is_stmt 0 view .LVU838
 2541 0172 049B     		ldr	r3, [sp, #16]
 791:Drivers/STM32F4xx_HAL_Driver/Src/stm32f4xx_hal_i2s_ex.c ****     {
 2542              		.loc 1 791 8 view .LVU839
 2543 0174 13F0080F 		tst	r3, #8
 2544 0178 B9D0     		beq	.L209
 791:Drivers/STM32F4xx_HAL_Driver/Src/stm32f4xx_hal_i2s_ex.c ****     {
 2545              		.loc 1 791 68 discriminator 1 view .LVU840
 2546 017a 029B     		ldr	r3, [sp, #8]
 791:Drivers/STM32F4xx_HAL_Driver/Src/stm32f4xx_hal_i2s_ex.c ****     {
 2547              		.loc 1 791 53 discriminator 1 view .LVU841
 2548 017c 13F0200F 		tst	r3, #32
 2549 0180 B5D0     		beq	.L209
 794:Drivers/STM32F4xx_HAL_Driver/Src/stm32f4xx_hal_i2s_ex.c **** 
 2550              		.loc 1 794 7 is_stmt 1 view .LVU842
 2551 0182 2268     		ldr	r2, [r4]
 2552 0184 124B     		ldr	r3, .L239
 2553 0186 9A42     		cmp	r2, r3
 2554 0188 1FD0     		beq	.L238
 794:Drivers/STM32F4xx_HAL_Driver/Src/stm32f4xx_hal_i2s_ex.c **** 
 2555              		.loc 1 794 7 is_stmt 0 discriminator 2 view .LVU843
 2556 018a 4FF04022 		mov	r2, #1073758208
 2557              	.L223:
 794:Drivers/STM32F4xx_HAL_Driver/Src/stm32f4xx_hal_i2s_ex.c **** 
 2558              		.loc 1 794 7 discriminator 4 view .LVU844
 2559 018e 5368     		ldr	r3, [r2, #4]
 794:Drivers/STM32F4xx_HAL_Driver/Src/stm32f4xx_hal_i2s_ex.c **** 
 2560              		.loc 1 794 7 discriminator 8 view .LVU845
 2561 0190 23F0A003 		bic	r3, r3, #160
 2562 0194 5360     		str	r3, [r2, #4]
 797:Drivers/STM32F4xx_HAL_Driver/Src/stm32f4xx_hal_i2s_ex.c **** 
 2563              		.loc 1 797 7 is_stmt 1 view .LVU846
 2564 0196 2268     		ldr	r2, [r4]
 2565 0198 5368     		ldr	r3, [r2, #4]
 2566 019a 23F06003 		bic	r3, r3, #96
 2567 019e 5360     		str	r3, [r2, #4]
 800:Drivers/STM32F4xx_HAL_Driver/Src/stm32f4xx_hal_i2s_ex.c **** 
 2568              		.loc 1 800 7 view .LVU847
 800:Drivers/STM32F4xx_HAL_Driver/Src/stm32f4xx_hal_i2s_ex.c **** 
 2569              		.loc 1 800 19 is_stmt 0 view .LVU848
 2570 01a0 0123     		movs	r3, #1
 2571 01a2 84F84130 		strb	r3, [r4, #65]
 803:Drivers/STM32F4xx_HAL_Driver/Src/stm32f4xx_hal_i2s_ex.c ****       /* Call user error callback */
 2572              		.loc 1 803 7 is_stmt 1 view .LVU849
 2573 01a6 636C     		ldr	r3, [r4, #68]
 2574 01a8 43F00403 		orr	r3, r3, #4
 2575 01ac 6364     		str	r3, [r4, #68]
 808:Drivers/STM32F4xx_HAL_Driver/Src/stm32f4xx_hal_i2s_ex.c **** #endif /* USE_HAL_I2S_REGISTER_CALLBACKS */
 2576              		.loc 1 808 7 view .LVU850
 2577 01ae 2046     		mov	r0, r4
 2578 01b0 FFF7FEFF 		bl	HAL_I2S_ErrorCallback
 2579              	.LVL125:
 812:Drivers/STM32F4xx_HAL_Driver/Src/stm32f4xx_hal_i2s_ex.c **** 
 2580              		.loc 1 812 1 is_stmt 0 view .LVU851
 2581 01b4 9BE7     		b	.L209
 2582              	.LVL126:
 2583              	.L235:
ARM GAS  /tmp/ccQYaWvF.s 			page 80


 757:Drivers/STM32F4xx_HAL_Driver/Src/stm32f4xx_hal_i2s_ex.c ****     }
 2584              		.loc 1 757 7 is_stmt 1 view .LVU852
 2585 01b6 2046     		mov	r0, r4
 2586              	.LVL127:
 757:Drivers/STM32F4xx_HAL_Driver/Src/stm32f4xx_hal_i2s_ex.c ****     }
 2587              		.loc 1 757 7 is_stmt 0 view .LVU853
 2588 01b8 FFF7FEFF 		bl	I2SEx_TxISR_I2SExt
 2589              	.LVL128:
 2590 01bc B0E7     		b	.L219
 2591              	.L236:
 765:Drivers/STM32F4xx_HAL_Driver/Src/stm32f4xx_hal_i2s_ex.c ****     }
 2592              		.loc 1 765 7 is_stmt 1 view .LVU854
 2593 01be 2046     		mov	r0, r4
 2594 01c0 FFF7FEFF 		bl	I2SEx_RxISR_I2S
 2595              	.LVL129:
 2596 01c4 B4E7     		b	.L220
 2597              	.L237:
 775:Drivers/STM32F4xx_HAL_Driver/Src/stm32f4xx_hal_i2s_ex.c **** 
 2598              		.loc 1 775 7 is_stmt 0 discriminator 1 view .LVU855
 2599 01c6 034A     		ldr	r2, .L239+4
 2600 01c8 C5E7     		b	.L222
 2601              	.L238:
 794:Drivers/STM32F4xx_HAL_Driver/Src/stm32f4xx_hal_i2s_ex.c **** 
 2602              		.loc 1 794 7 discriminator 1 view .LVU856
 2603 01ca 024A     		ldr	r2, .L239+4
 2604 01cc DFE7     		b	.L223
 2605              	.L240:
 2606 01ce 00BF     		.align	2
 2607              	.L239:
 2608 01d0 00380040 		.word	1073756160
 2609 01d4 00340040 		.word	1073755136
 2610              		.cfi_endproc
 2611              	.LFE137:
 2613              		.text
 2614              	.Letext0:
 2615              		.file 2 "/usr/arm-none-eabi/include/machine/_default_types.h"
 2616              		.file 3 "/usr/arm-none-eabi/include/sys/_stdint.h"
 2617              		.file 4 "Drivers/CMSIS/Device/ST/STM32F4xx/Include/stm32f411xe.h"
 2618              		.file 5 "Drivers/CMSIS/Device/ST/STM32F4xx/Include/stm32f4xx.h"
 2619              		.file 6 "Drivers/STM32F4xx_HAL_Driver/Inc/stm32f4xx_hal_def.h"
 2620              		.file 7 "Drivers/STM32F4xx_HAL_Driver/Inc/stm32f4xx_hal_dma.h"
 2621              		.file 8 "Drivers/STM32F4xx_HAL_Driver/Inc/stm32f4xx_hal_i2s.h"
 2622              		.file 9 "Drivers/STM32F4xx_HAL_Driver/Inc/stm32f4xx_hal.h"
ARM GAS  /tmp/ccQYaWvF.s 			page 81


DEFINED SYMBOLS
                            *ABS*:00000000 stm32f4xx_hal_i2s_ex.c
     /tmp/ccQYaWvF.s:21     .text.I2SEx_FullDuplexWaitFlagStateUntilTimeout:00000000 $t
     /tmp/ccQYaWvF.s:26     .text.I2SEx_FullDuplexWaitFlagStateUntilTimeout:00000000 I2SEx_FullDuplexWaitFlagStateUntilTimeout
     /tmp/ccQYaWvF.s:183    .text.I2SEx_FullDuplexWaitFlagStateUntilTimeout:000000a8 $d
     /tmp/ccQYaWvF.s:188    .text.I2SEx_TxRxDMAError:00000000 $t
     /tmp/ccQYaWvF.s:193    .text.I2SEx_TxRxDMAError:00000000 I2SEx_TxRxDMAError
     /tmp/ccQYaWvF.s:255    .text.I2SEx_TxRxDMAError:00000040 $d
     /tmp/ccQYaWvF.s:261    .text.HAL_I2SEx_TransmitReceive:00000000 $t
     /tmp/ccQYaWvF.s:267    .text.HAL_I2SEx_TransmitReceive:00000000 HAL_I2SEx_TransmitReceive
     /tmp/ccQYaWvF.s:890    .text.HAL_I2SEx_TransmitReceive:000002f0 $d
     /tmp/ccQYaWvF.s:895    .text.HAL_I2SEx_TransmitReceive:000002f8 $t
     /tmp/ccQYaWvF.s:989    .text.HAL_I2SEx_TransmitReceive_IT:00000000 $t
     /tmp/ccQYaWvF.s:995    .text.HAL_I2SEx_TransmitReceive_IT:00000000 HAL_I2SEx_TransmitReceive_IT
     /tmp/ccQYaWvF.s:1298   .text.HAL_I2SEx_TransmitReceive_IT:00000198 $d
     /tmp/ccQYaWvF.s:1304   .text.HAL_I2SEx_TransmitReceive_DMA:00000000 $t
     /tmp/ccQYaWvF.s:1310   .text.HAL_I2SEx_TransmitReceive_DMA:00000000 HAL_I2SEx_TransmitReceive_DMA
     /tmp/ccQYaWvF.s:1694   .text.HAL_I2SEx_TransmitReceive_DMA:0000019c $d
     /tmp/ccQYaWvF.s:1729   .text.I2SEx_TxRxDMAHalfCplt:00000000 I2SEx_TxRxDMAHalfCplt
     /tmp/ccQYaWvF.s:1781   .text.I2SEx_TxRxDMACplt:00000000 I2SEx_TxRxDMACplt
     /tmp/ccQYaWvF.s:1703   .text.HAL_I2SEx_TxRxHalfCpltCallback:00000000 $t
     /tmp/ccQYaWvF.s:1709   .text.HAL_I2SEx_TxRxHalfCpltCallback:00000000 HAL_I2SEx_TxRxHalfCpltCallback
     /tmp/ccQYaWvF.s:1724   .text.I2SEx_TxRxDMAHalfCplt:00000000 $t
     /tmp/ccQYaWvF.s:1755   .text.HAL_I2SEx_TxRxCpltCallback:00000000 $t
     /tmp/ccQYaWvF.s:1761   .text.HAL_I2SEx_TxRxCpltCallback:00000000 HAL_I2SEx_TxRxCpltCallback
     /tmp/ccQYaWvF.s:1776   .text.I2SEx_TxRxDMACplt:00000000 $t
     /tmp/ccQYaWvF.s:1886   .text.I2SEx_TxRxDMACplt:00000074 $d
     /tmp/ccQYaWvF.s:1892   .text.I2SEx_TxISR_I2S:00000000 $t
     /tmp/ccQYaWvF.s:1897   .text.I2SEx_TxISR_I2S:00000000 I2SEx_TxISR_I2S
     /tmp/ccQYaWvF.s:1965   .text.I2SEx_RxISR_I2SExt:00000000 $t
     /tmp/ccQYaWvF.s:1970   .text.I2SEx_RxISR_I2SExt:00000000 I2SEx_RxISR_I2SExt
     /tmp/ccQYaWvF.s:2059   .text.I2SEx_RxISR_I2SExt:0000005c $d
     /tmp/ccQYaWvF.s:2065   .text.I2SEx_TxISR_I2SExt:00000000 $t
     /tmp/ccQYaWvF.s:2070   .text.I2SEx_TxISR_I2SExt:00000000 I2SEx_TxISR_I2SExt
     /tmp/ccQYaWvF.s:2159   .text.I2SEx_TxISR_I2SExt:0000005c $d
     /tmp/ccQYaWvF.s:2165   .text.I2SEx_RxISR_I2S:00000000 $t
     /tmp/ccQYaWvF.s:2170   .text.I2SEx_RxISR_I2S:00000000 I2SEx_RxISR_I2S
     /tmp/ccQYaWvF.s:2238   .text.HAL_I2SEx_FullDuplex_IRQHandler:00000000 $t
     /tmp/ccQYaWvF.s:2244   .text.HAL_I2SEx_FullDuplex_IRQHandler:00000000 HAL_I2SEx_FullDuplex_IRQHandler
     /tmp/ccQYaWvF.s:2608   .text.HAL_I2SEx_FullDuplex_IRQHandler:000001d0 $d

UNDEFINED SYMBOLS
HAL_GetTick
HAL_I2S_ErrorCallback
HAL_DMA_Start_IT
